	.text
	.syntax unified
	.eabi_attribute	67, "2.09"
	.eabi_attribute	6, 13
	.eabi_attribute	7, 77
	.eabi_attribute	8, 0
	.eabi_attribute	9, 2
	.eabi_attribute	34, 1
	.eabi_attribute	17, 1
	.eabi_attribute	20, 1
	.eabi_attribute	21, 0
	.eabi_attribute	23, 3
	.eabi_attribute	24, 1
	.eabi_attribute	25, 1
	.eabi_attribute	38, 1
	.eabi_attribute	14, 0
	.file	"ho7ax28tx5nrlhs"
	.file	1 "C:\\Users\\KumarAnkita\\Documents\\trying_on_win\\aes_impl\\src\\aes_using_1d_array.rs"
	.file	2 "C:\\Users\\KumarAnkita\\Documents\\trying_on_win\\aes_impl\\src\\main.rs"
	.section	".text._ZN42_$LT$$RF$T$u20$as$u20$core..fmt..Debug$GT$3fmt17h727afcaae8af8915E","ax",%progbits
	.p2align	1
	.type	_ZN42_$LT$$RF$T$u20$as$u20$core..fmt..Debug$GT$3fmt17h727afcaae8af8915E,%function
	.code	16
	.thumb_func
_ZN42_$LT$$RF$T$u20$as$u20$core..fmt..Debug$GT$3fmt17h727afcaae8af8915E:
.Lfunc_begin0:
	.file	3 "/rustc/db9d1b20bba1968c1ec1fc49616d4742c1725b4b/library/core/src/fmt\\mod.rs"
	.loc	3 2087 0
	.fnstart
	.cfi_sections .debug_frame
	.cfi_startproc
	.save	{r7, lr}
	push	{r7, lr}
	.cfi_def_cfa_offset 8
	.cfi_offset lr, -4
	.cfi_offset r7, -8
	.setfp	r7, sp
	mov	r7, sp
	.cfi_def_cfa_register r7
.Ltmp0:
	.loc	3 2087 71 prologue_end
	ldr	r0, [r0]
.Ltmp1:
	.loc	3 2087 62 is_stmt 0
	bl	_ZN4core5array69_$LT$impl$u20$core..fmt..Debug$u20$for$u20$$u5b$T$u3b$$u20$N$u5d$$GT$3fmt17h214dd6ca32508366E
.Ltmp2:
	.loc	3 2087 84
	pop	{r7, pc}
.Ltmp3:
.Lfunc_end0:
	.size	_ZN42_$LT$$RF$T$u20$as$u20$core..fmt..Debug$GT$3fmt17h727afcaae8af8915E, .Lfunc_end0-_ZN42_$LT$$RF$T$u20$as$u20$core..fmt..Debug$GT$3fmt17h727afcaae8af8915E
	.cfi_endproc
	.cantunwind
	.fnend

	.section	".text._ZN46_$LT$u8$u20$as$u20$core..iter..range..Step$GT$17forward_unchecked17h6e8c7b17f40da170E","ax",%progbits
	.p2align	1
	.type	_ZN46_$LT$u8$u20$as$u20$core..iter..range..Step$GT$17forward_unchecked17h6e8c7b17f40da170E,%function
	.code	16
	.thumb_func
_ZN46_$LT$u8$u20$as$u20$core..iter..range..Step$GT$17forward_unchecked17h6e8c7b17f40da170E:
.Lfunc_begin1:
	.file	4 "/rustc/db9d1b20bba1968c1ec1fc49616d4742c1725b4b/library/core/src/iter\\range.rs"
	.loc	4 189 0 is_stmt 1
	.fnstart
	.cfi_startproc
	.file	5 "/rustc/db9d1b20bba1968c1ec1fc49616d4742c1725b4b/library/core/src/num\\uint_macros.rs"
	.loc	5 463 22 prologue_end
	adds	r0, #1
.Ltmp4:
	.loc	4 192 10
	bx	lr
.Ltmp5:
.Lfunc_end1:
	.size	_ZN46_$LT$u8$u20$as$u20$core..iter..range..Step$GT$17forward_unchecked17h6e8c7b17f40da170E, .Lfunc_end1-_ZN46_$LT$u8$u20$as$u20$core..iter..range..Step$GT$17forward_unchecked17h6e8c7b17f40da170E
	.cfi_endproc
	.cantunwind
	.fnend

	.section	".text._ZN49_$LT$usize$u20$as$u20$core..iter..range..Step$GT$17forward_unchecked17h41c4f27ac3428d36E","ax",%progbits
	.p2align	1
	.type	_ZN49_$LT$usize$u20$as$u20$core..iter..range..Step$GT$17forward_unchecked17h41c4f27ac3428d36E,%function
	.code	16
	.thumb_func
_ZN49_$LT$usize$u20$as$u20$core..iter..range..Step$GT$17forward_unchecked17h41c4f27ac3428d36E:
.Lfunc_begin2:
	.loc	4 189 0
	.fnstart
	.cfi_startproc
	.loc	5 463 22 prologue_end
	adds	r0, #1
.Ltmp6:
	.loc	4 192 10
	bx	lr
.Ltmp7:
.Lfunc_end2:
	.size	_ZN49_$LT$usize$u20$as$u20$core..iter..range..Step$GT$17forward_unchecked17h41c4f27ac3428d36E, .Lfunc_end2-_ZN49_$LT$usize$u20$as$u20$core..iter..range..Step$GT$17forward_unchecked17h41c4f27ac3428d36E
	.cfi_endproc
	.cantunwind
	.fnend

	.section	.text._ZN4core10intrinsics19copy_nonoverlapping17h1b316760e9a21f7bE,"ax",%progbits
	.p2align	1
	.type	_ZN4core10intrinsics19copy_nonoverlapping17h1b316760e9a21f7bE,%function
	.code	16
	.thumb_func
_ZN4core10intrinsics19copy_nonoverlapping17h1b316760e9a21f7bE:
.Lfunc_begin3:
	.file	6 "/rustc/db9d1b20bba1968c1ec1fc49616d4742c1725b4b/library/core/src\\intrinsics.rs"
	.loc	6 2052 0
	.fnstart
	.cfi_startproc
	.loc	6 2079 14 prologue_end
	ldr.w	r12, [r0]
	ldr	r3, [r0, #4]
	ldr	r2, [r0, #8]
	ldr	r0, [r0, #12]
.Ltmp8:
	str	r0, [r1, #12]
	str	r2, [r1, #8]
	str	r3, [r1, #4]
	str.w	r12, [r1]
	.loc	6 2080 2
	bx	lr
.Ltmp9:
.Lfunc_end3:
	.size	_ZN4core10intrinsics19copy_nonoverlapping17h1b316760e9a21f7bE, .Lfunc_end3-_ZN4core10intrinsics19copy_nonoverlapping17h1b316760e9a21f7bE
	.cfi_endproc
	.cantunwind
	.fnend

	.section	".text._ZN4core3cmp5impls54_$LT$impl$u20$core..cmp..PartialOrd$u20$for$u20$u8$GT$2lt17ha73b01d0dc4d6f51E","ax",%progbits
	.p2align	1
	.type	_ZN4core3cmp5impls54_$LT$impl$u20$core..cmp..PartialOrd$u20$for$u20$u8$GT$2lt17ha73b01d0dc4d6f51E,%function
	.code	16
	.thumb_func
_ZN4core3cmp5impls54_$LT$impl$u20$core..cmp..PartialOrd$u20$for$u20$u8$GT$2lt17ha73b01d0dc4d6f51E:
.Lfunc_begin4:
	.file	7 "/rustc/db9d1b20bba1968c1ec1fc49616d4742c1725b4b/library/core/src\\cmp.rs"
	.loc	7 1327 0
	.fnstart
	.cfi_startproc
	.loc	7 1327 62 prologue_end
	ldrb	r1, [r1]
.Ltmp10:
	.loc	7 1327 52 is_stmt 0
	ldrb	r2, [r0]
	movs	r0, #0
.Ltmp11:
	cmp	r2, r1
	it	lo
	movlo	r0, #1
	.loc	7 1327 72
	bx	lr
.Ltmp12:
.Lfunc_end4:
	.size	_ZN4core3cmp5impls54_$LT$impl$u20$core..cmp..PartialOrd$u20$for$u20$u8$GT$2lt17ha73b01d0dc4d6f51E, .Lfunc_end4-_ZN4core3cmp5impls54_$LT$impl$u20$core..cmp..PartialOrd$u20$for$u20$u8$GT$2lt17ha73b01d0dc4d6f51E
	.cfi_endproc
	.cantunwind
	.fnend

	.section	".text._ZN4core3cmp5impls57_$LT$impl$u20$core..cmp..PartialOrd$u20$for$u20$usize$GT$2lt17hbbefb1a93b0b532cE","ax",%progbits
	.p2align	1
	.type	_ZN4core3cmp5impls57_$LT$impl$u20$core..cmp..PartialOrd$u20$for$u20$usize$GT$2lt17hbbefb1a93b0b532cE,%function
	.code	16
	.thumb_func
_ZN4core3cmp5impls57_$LT$impl$u20$core..cmp..PartialOrd$u20$for$u20$usize$GT$2lt17hbbefb1a93b0b532cE:
.Lfunc_begin5:
	.loc	7 1327 0 is_stmt 1
	.fnstart
	.cfi_startproc
	.loc	7 1327 62 prologue_end
	ldr	r1, [r1]
.Ltmp13:
	.loc	7 1327 52 is_stmt 0
	ldr	r2, [r0]
	movs	r0, #0
.Ltmp14:
	cmp	r2, r1
	it	lo
	movlo	r0, #1
	.loc	7 1327 72
	bx	lr
.Ltmp15:
.Lfunc_end5:
	.size	_ZN4core3cmp5impls57_$LT$impl$u20$core..cmp..PartialOrd$u20$for$u20$usize$GT$2lt17hbbefb1a93b0b532cE, .Lfunc_end5-_ZN4core3cmp5impls57_$LT$impl$u20$core..cmp..PartialOrd$u20$for$u20$usize$GT$2lt17hbbefb1a93b0b532cE
	.cfi_endproc
	.cantunwind
	.fnend

	.section	.text._ZN4core3mem7replace17h3e57e96ceb21c253E,"ax",%progbits
	.p2align	1
	.type	_ZN4core3mem7replace17h3e57e96ceb21c253E,%function
	.code	16
	.thumb_func
_ZN4core3mem7replace17h3e57e96ceb21c253E:
.Lfunc_begin6:
	.file	8 "/rustc/db9d1b20bba1968c1ec1fc49616d4742c1725b4b/library/core/src/mem\\mod.rs"
	.loc	8 834 0 is_stmt 1
	.fnstart
	.cfi_startproc
	.save	{r4, r5, r6, r7, lr}
	push	{r4, r5, r6, r7, lr}
	.cfi_def_cfa_offset 20
	.cfi_offset lr, -4
	.cfi_offset r7, -8
	.cfi_offset r6, -12
	.cfi_offset r5, -16
	.cfi_offset r4, -20
	.setfp	r7, sp, #12
	add	r7, sp, #12
	.cfi_def_cfa r7, 8
	.save	{r11}
	str	r11, [sp, #-4]!
	.cfi_offset r11, -24
	mov	r4, r1
.Ltmp16:
	mov	r5, r0
.Ltmp17:
	.loc	8 839 22 prologue_end
	bl	_ZN4core3ptr4read17h59ba669ab07a421cE
	mov	r6, r0
.Ltmp18:
	.loc	8 840 9
	mov	r0, r5
	mov	r1, r4
.Ltmp19:
	bl	_ZN4core3ptr5write17hee5f80fbe7c4b083E
.Ltmp20:
	.loc	8 843 2
	mov	r0, r6
	ldr	r11, [sp], #4
	pop	{r4, r5, r6, r7, pc}
.Ltmp21:
.Lfunc_end6:
	.size	_ZN4core3mem7replace17h3e57e96ceb21c253E, .Lfunc_end6-_ZN4core3mem7replace17h3e57e96ceb21c253E
	.cfi_endproc
	.cantunwind
	.fnend

	.section	.text._ZN4core3mem7replace17hca17d03d47a0b465E,"ax",%progbits
	.p2align	1
	.type	_ZN4core3mem7replace17hca17d03d47a0b465E,%function
	.code	16
	.thumb_func
_ZN4core3mem7replace17hca17d03d47a0b465E:
.Lfunc_begin7:
	.loc	8 834 0
	.fnstart
	.cfi_startproc
	.save	{r4, r5, r6, r7, lr}
	push	{r4, r5, r6, r7, lr}
	.cfi_def_cfa_offset 20
	.cfi_offset lr, -4
	.cfi_offset r7, -8
	.cfi_offset r6, -12
	.cfi_offset r5, -16
	.cfi_offset r4, -20
	.setfp	r7, sp, #12
	add	r7, sp, #12
	.cfi_def_cfa r7, 8
	.save	{r11}
	str	r11, [sp, #-4]!
	.cfi_offset r11, -24
	mov	r4, r1
.Ltmp22:
	mov	r5, r0
.Ltmp23:
	.loc	8 839 22 prologue_end
	bl	_ZN4core3ptr4read17hd85fb8cbc930429aE
	mov	r6, r0
.Ltmp24:
	.loc	8 840 9
	mov	r0, r5
	mov	r1, r4
.Ltmp25:
	bl	_ZN4core3ptr5write17h6f1fd0138c38a088E
.Ltmp26:
	.loc	8 843 2
	mov	r0, r6
	ldr	r11, [sp], #4
	pop	{r4, r5, r6, r7, pc}
.Ltmp27:
.Lfunc_end7:
	.size	_ZN4core3mem7replace17hca17d03d47a0b465E, .Lfunc_end7-_ZN4core3mem7replace17hca17d03d47a0b465E
	.cfi_endproc
	.cantunwind
	.fnend

	.section	".text._ZN4core3ptr49drop_in_place$LT$$RF$$u5b$u8$u3b$$u20$16$u5d$$GT$17h6cc075015c357d26E","ax",%progbits
	.p2align	1
	.type	_ZN4core3ptr49drop_in_place$LT$$RF$$u5b$u8$u3b$$u20$16$u5d$$GT$17h6cc075015c357d26E,%function
	.code	16
	.thumb_func
_ZN4core3ptr49drop_in_place$LT$$RF$$u5b$u8$u3b$$u20$16$u5d$$GT$17h6cc075015c357d26E:
.Lfunc_begin8:
	.file	9 "/rustc/db9d1b20bba1968c1ec1fc49616d4742c1725b4b/library/core/src/ptr\\mod.rs"
	.loc	9 188 0
	.fnstart
	.cfi_startproc
	.loc	9 188 1 prologue_end
	bx	lr
.Ltmp28:
.Lfunc_end8:
	.size	_ZN4core3ptr49drop_in_place$LT$$RF$$u5b$u8$u3b$$u20$16$u5d$$GT$17h6cc075015c357d26E, .Lfunc_end8-_ZN4core3ptr49drop_in_place$LT$$RF$$u5b$u8$u3b$$u20$16$u5d$$GT$17h6cc075015c357d26E
	.cfi_endproc
	.cantunwind
	.fnend

	.section	.text._ZN4core3ptr4read17h59ba669ab07a421cE,"ax",%progbits
	.p2align	1
	.type	_ZN4core3ptr4read17h59ba669ab07a421cE,%function
	.code	16
	.thumb_func
_ZN4core3ptr4read17h59ba669ab07a421cE:
.Lfunc_begin9:
	.loc	9 685 0
	.fnstart
	.cfi_startproc
	.loc	9 701 9 prologue_end
	ldr	r0, [r0]
.Ltmp29:
	.loc	9 704 2
	bx	lr
.Ltmp30:
.Lfunc_end9:
	.size	_ZN4core3ptr4read17h59ba669ab07a421cE, .Lfunc_end9-_ZN4core3ptr4read17h59ba669ab07a421cE
	.cfi_endproc
	.cantunwind
	.fnend

	.section	.text._ZN4core3ptr4read17hd85fb8cbc930429aE,"ax",%progbits
	.p2align	1
	.type	_ZN4core3ptr4read17hd85fb8cbc930429aE,%function
	.code	16
	.thumb_func
_ZN4core3ptr4read17hd85fb8cbc930429aE:
.Lfunc_begin10:
	.loc	9 685 0
	.fnstart
	.cfi_startproc
	.loc	9 704 2 prologue_end
	ldrb	r0, [r0]
.Ltmp31:
	bx	lr
.Ltmp32:
.Lfunc_end10:
	.size	_ZN4core3ptr4read17hd85fb8cbc930429aE, .Lfunc_end10-_ZN4core3ptr4read17hd85fb8cbc930429aE
	.cfi_endproc
	.cantunwind
	.fnend

	.section	.text._ZN4core3ptr5write17h6f1fd0138c38a088E,"ax",%progbits
	.p2align	1
	.type	_ZN4core3ptr5write17h6f1fd0138c38a088E,%function
	.code	16
	.thumb_func
_ZN4core3ptr5write17h6f1fd0138c38a088E:
.Lfunc_begin11:
	.loc	9 880 0
	.fnstart
	.cfi_startproc
	.loc	9 892 9 prologue_end
	strb	r1, [r0]
	.loc	9 895 2
	bx	lr
.Ltmp33:
.Lfunc_end11:
	.size	_ZN4core3ptr5write17h6f1fd0138c38a088E, .Lfunc_end11-_ZN4core3ptr5write17h6f1fd0138c38a088E
	.cfi_endproc
	.cantunwind
	.fnend

	.section	.text._ZN4core3ptr5write17hee5f80fbe7c4b083E,"ax",%progbits
	.p2align	1
	.type	_ZN4core3ptr5write17hee5f80fbe7c4b083E,%function
	.code	16
	.thumb_func
_ZN4core3ptr5write17hee5f80fbe7c4b083E:
.Lfunc_begin12:
	.loc	9 880 0
	.fnstart
	.cfi_startproc
	.loc	9 892 9 prologue_end
	str	r1, [r0]
	.loc	9 895 2
	bx	lr
.Ltmp34:
.Lfunc_end12:
	.size	_ZN4core3ptr5write17hee5f80fbe7c4b083E, .Lfunc_end12-_ZN4core3ptr5write17hee5f80fbe7c4b083E
	.cfi_endproc
	.cantunwind
	.fnend

	.section	".text._ZN4core3ptr9const_ptr33_$LT$impl$u20$$BP$const$u20$T$GT$4cast17h6610ea5ef4ccdfe9E","ax",%progbits
	.p2align	1
	.type	_ZN4core3ptr9const_ptr33_$LT$impl$u20$$BP$const$u20$T$GT$4cast17h6610ea5ef4ccdfe9E,%function
	.code	16
	.thumb_func
_ZN4core3ptr9const_ptr33_$LT$impl$u20$$BP$const$u20$T$GT$4cast17h6610ea5ef4ccdfe9E:
.Lfunc_begin13:
	.file	10 "/rustc/db9d1b20bba1968c1ec1fc49616d4742c1725b4b/library/core/src/ptr\\const_ptr.rs"
	.loc	10 47 0
	.fnstart
	.cfi_startproc
	.loc	10 49 6 prologue_end
	bx	lr
.Ltmp35:
.Lfunc_end13:
	.size	_ZN4core3ptr9const_ptr33_$LT$impl$u20$$BP$const$u20$T$GT$4cast17h6610ea5ef4ccdfe9E, .Lfunc_end13-_ZN4core3ptr9const_ptr33_$LT$impl$u20$$BP$const$u20$T$GT$4cast17h6610ea5ef4ccdfe9E
	.cfi_endproc
	.cantunwind
	.fnend

	.section	".text._ZN4core4iter5range101_$LT$impl$u20$core..iter..traits..iterator..Iterator$u20$for$u20$core..ops..range..Range$LT$A$GT$$GT$4next17hcabbf5f88e3653c1E","ax",%progbits
	.p2align	1
	.type	_ZN4core4iter5range101_$LT$impl$u20$core..iter..traits..iterator..Iterator$u20$for$u20$core..ops..range..Range$LT$A$GT$$GT$4next17hcabbf5f88e3653c1E,%function
	.code	16
	.thumb_func
_ZN4core4iter5range101_$LT$impl$u20$core..iter..traits..iterator..Iterator$u20$for$u20$core..ops..range..Range$LT$A$GT$$GT$4next17hcabbf5f88e3653c1E:
.Lfunc_begin14:
	.loc	4 710 0
	.fnstart
	.cfi_startproc
	.save	{r7, lr}
	push	{r7, lr}
	.cfi_def_cfa_offset 8
	.cfi_offset lr, -4
	.cfi_offset r7, -8
	.setfp	r7, sp
	mov	r7, sp
	.cfi_def_cfa_register r7
.Ltmp36:
	.loc	4 711 9 prologue_end
	bl	_ZN89_$LT$core..ops..range..Range$LT$T$GT$$u20$as$u20$core..iter..range..RangeIteratorImpl$GT$9spec_next17h9e22d44170085d2fE
.Ltmp37:
	and	r0, r0, #1
	.loc	4 712 6
	pop	{r7, pc}
.Ltmp38:
.Lfunc_end14:
	.size	_ZN4core4iter5range101_$LT$impl$u20$core..iter..traits..iterator..Iterator$u20$for$u20$core..ops..range..Range$LT$A$GT$$GT$4next17hcabbf5f88e3653c1E, .Lfunc_end14-_ZN4core4iter5range101_$LT$impl$u20$core..iter..traits..iterator..Iterator$u20$for$u20$core..ops..range..Range$LT$A$GT$$GT$4next17hcabbf5f88e3653c1E
	.cfi_endproc
	.cantunwind
	.fnend

	.section	".text._ZN4core4iter5range101_$LT$impl$u20$core..iter..traits..iterator..Iterator$u20$for$u20$core..ops..range..Range$LT$A$GT$$GT$4next17hcbb06759ad56c6b1E","ax",%progbits
	.p2align	1
	.type	_ZN4core4iter5range101_$LT$impl$u20$core..iter..traits..iterator..Iterator$u20$for$u20$core..ops..range..Range$LT$A$GT$$GT$4next17hcbb06759ad56c6b1E,%function
	.code	16
	.thumb_func
_ZN4core4iter5range101_$LT$impl$u20$core..iter..traits..iterator..Iterator$u20$for$u20$core..ops..range..Range$LT$A$GT$$GT$4next17hcbb06759ad56c6b1E:
.Lfunc_begin15:
	.loc	4 710 0
	.fnstart
	.cfi_startproc
	.save	{r7, lr}
	push	{r7, lr}
	.cfi_def_cfa_offset 8
	.cfi_offset lr, -4
	.cfi_offset r7, -8
	.setfp	r7, sp
	mov	r7, sp
	.cfi_def_cfa_register r7
.Ltmp39:
	.loc	4 711 9 prologue_end
	bl	_ZN89_$LT$core..ops..range..Range$LT$T$GT$$u20$as$u20$core..iter..range..RangeIteratorImpl$GT$9spec_next17hd50387ef7723c30cE
.Ltmp40:
	.loc	4 712 6
	pop	{r7, pc}
.Ltmp41:
.Lfunc_end15:
	.size	_ZN4core4iter5range101_$LT$impl$u20$core..iter..traits..iterator..Iterator$u20$for$u20$core..ops..range..Range$LT$A$GT$$GT$4next17hcbb06759ad56c6b1E, .Lfunc_end15-_ZN4core4iter5range101_$LT$impl$u20$core..iter..traits..iterator..Iterator$u20$for$u20$core..ops..range..Range$LT$A$GT$$GT$4next17hcbb06759ad56c6b1E
	.cfi_endproc
	.cantunwind
	.fnend

	.section	".text._ZN4core5array69_$LT$impl$u20$core..fmt..Debug$u20$for$u20$$u5b$T$u3b$$u20$N$u5d$$GT$3fmt17h214dd6ca32508366E","ax",%progbits
	.p2align	1
	.type	_ZN4core5array69_$LT$impl$u20$core..fmt..Debug$u20$for$u20$$u5b$T$u3b$$u20$N$u5d$$GT$3fmt17h214dd6ca32508366E,%function
	.code	16
	.thumb_func
_ZN4core5array69_$LT$impl$u20$core..fmt..Debug$u20$for$u20$$u5b$T$u3b$$u20$N$u5d$$GT$3fmt17h214dd6ca32508366E:
.Lfunc_begin16:
	.file	11 "/rustc/db9d1b20bba1968c1ec1fc49616d4742c1725b4b/library/core/src/array\\mod.rs"
	.loc	11 230 0
	.fnstart
	.cfi_startproc
	.save	{r4, r6, r7, lr}
	push	{r4, r6, r7, lr}
	.cfi_def_cfa_offset 16
	.cfi_offset lr, -4
	.cfi_offset r7, -8
	.cfi_offset r6, -12
	.cfi_offset r4, -16
	.setfp	r7, sp, #8
	add	r7, sp, #8
	.cfi_def_cfa r7, 8
	.pad	#8
	sub	sp, #8
	mov	r4, r1
.Ltmp42:
	.loc	11 231 27 prologue_end
	bl	_ZN4core5array85_$LT$impl$u20$core..ops..index..Index$LT$I$GT$$u20$for$u20$$u5b$T$u3b$$u20$N$u5d$$GT$5index17h4c1b68debacc17ffE
.Ltmp43:
	.loc	11 0 27 is_stmt 0
	movs	r1, #16
	.loc	11 231 26
	strd	r0, r1, [sp]
	mov	r0, sp
	.loc	11 231 9
	mov	r1, r4
.Ltmp44:
	bl	_ZN42_$LT$$RF$T$u20$as$u20$core..fmt..Debug$GT$3fmt17hfff796e2d862b0f1E
.Ltmp45:
	.loc	11 232 6 is_stmt 1
	add	sp, #8
	pop	{r4, r6, r7, pc}
.Ltmp46:
.Lfunc_end16:
	.size	_ZN4core5array69_$LT$impl$u20$core..fmt..Debug$u20$for$u20$$u5b$T$u3b$$u20$N$u5d$$GT$3fmt17h214dd6ca32508366E, .Lfunc_end16-_ZN4core5array69_$LT$impl$u20$core..fmt..Debug$u20$for$u20$$u5b$T$u3b$$u20$N$u5d$$GT$3fmt17h214dd6ca32508366E
	.cfi_endproc
	.cantunwind
	.fnend

	.section	".text._ZN4core5array85_$LT$impl$u20$core..ops..index..Index$LT$I$GT$$u20$for$u20$$u5b$T$u3b$$u20$N$u5d$$GT$5index17h4c1b68debacc17ffE","ax",%progbits
	.p2align	1
	.type	_ZN4core5array85_$LT$impl$u20$core..ops..index..Index$LT$I$GT$$u20$for$u20$$u5b$T$u3b$$u20$N$u5d$$GT$5index17h4c1b68debacc17ffE,%function
	.code	16
	.thumb_func
_ZN4core5array85_$LT$impl$u20$core..ops..index..Index$LT$I$GT$$u20$for$u20$$u5b$T$u3b$$u20$N$u5d$$GT$5index17h4c1b68debacc17ffE:
.Lfunc_begin17:
	.loc	11 284 0
	.fnstart
	.cfi_startproc
	.save	{r7, lr}
	push	{r7, lr}
	.cfi_def_cfa_offset 8
	.cfi_offset lr, -4
	.cfi_offset r7, -8
	.setfp	r7, sp
	mov	r7, sp
	.cfi_def_cfa_register r7
.Ltmp47:
	.loc	11 285 9 prologue_end
	bl	_ZN4core5slice5index74_$LT$impl$u20$core..ops..index..Index$LT$I$GT$$u20$for$u20$$u5b$T$u5d$$GT$5index17hb982854f567cd8faE
.Ltmp48:
	.loc	11 286 6
	pop	{r7, pc}
.Ltmp49:
.Lfunc_end17:
	.size	_ZN4core5array85_$LT$impl$u20$core..ops..index..Index$LT$I$GT$$u20$for$u20$$u5b$T$u3b$$u20$N$u5d$$GT$5index17h4c1b68debacc17ffE, .Lfunc_end17-_ZN4core5array85_$LT$impl$u20$core..ops..index..Index$LT$I$GT$$u20$for$u20$$u5b$T$u3b$$u20$N$u5d$$GT$5index17h4c1b68debacc17ffE
	.cfi_endproc
	.cantunwind
	.fnend

	.section	".text._ZN4core5array8equality103_$LT$impl$u20$core..cmp..PartialEq$LT$$u5b$B$u3b$$u20$N$u5d$$GT$$u20$for$u20$$u5b$A$u3b$$u20$N$u5d$$GT$2eq17hc7586892cf584a96E","ax",%progbits
	.p2align	1
	.type	_ZN4core5array8equality103_$LT$impl$u20$core..cmp..PartialEq$LT$$u5b$B$u3b$$u20$N$u5d$$GT$$u20$for$u20$$u5b$A$u3b$$u20$N$u5d$$GT$2eq17hc7586892cf584a96E,%function
	.code	16
	.thumb_func
_ZN4core5array8equality103_$LT$impl$u20$core..cmp..PartialEq$LT$$u5b$B$u3b$$u20$N$u5d$$GT$$u20$for$u20$$u5b$A$u3b$$u20$N$u5d$$GT$2eq17hc7586892cf584a96E:
.Lfunc_begin18:
	.file	12 "/rustc/db9d1b20bba1968c1ec1fc49616d4742c1725b4b/library/core/src/array\\equality.rs"
	.loc	12 7 0
	.fnstart
	.cfi_startproc
	.save	{r7, lr}
	push	{r7, lr}
	.cfi_def_cfa_offset 8
	.cfi_offset lr, -4
	.cfi_offset r7, -8
	.setfp	r7, sp
	mov	r7, sp
	.cfi_def_cfa_register r7
.Ltmp50:
	.loc	12 8 9 prologue_end
	bl	_ZN69_$LT$T$u20$as$u20$core..array..equality..SpecArrayEq$LT$U$C$_$GT$$GT$7spec_eq17h243197d4c20727a9E
.Ltmp51:
	.loc	12 9 6
	pop	{r7, pc}
.Ltmp52:
.Lfunc_end18:
	.size	_ZN4core5array8equality103_$LT$impl$u20$core..cmp..PartialEq$LT$$u5b$B$u3b$$u20$N$u5d$$GT$$u20$for$u20$$u5b$A$u3b$$u20$N$u5d$$GT$2eq17hc7586892cf584a96E, .Lfunc_end18-_ZN4core5array8equality103_$LT$impl$u20$core..cmp..PartialEq$LT$$u5b$B$u3b$$u20$N$u5d$$GT$$u20$for$u20$$u5b$A$u3b$$u20$N$u5d$$GT$2eq17hc7586892cf584a96E
	.cfi_endproc
	.cantunwind
	.fnend

	.section	".text._ZN4core5clone5impls51_$LT$impl$u20$core..clone..Clone$u20$for$u20$u8$GT$5clone17h6e1e1ebae28178b9E","ax",%progbits
	.p2align	1
	.type	_ZN4core5clone5impls51_$LT$impl$u20$core..clone..Clone$u20$for$u20$u8$GT$5clone17h6e1e1ebae28178b9E,%function
	.code	16
	.thumb_func
_ZN4core5clone5impls51_$LT$impl$u20$core..clone..Clone$u20$for$u20$u8$GT$5clone17h6e1e1ebae28178b9E:
.Lfunc_begin19:
	.file	13 "/rustc/db9d1b20bba1968c1ec1fc49616d4742c1725b4b/library/core/src\\clone.rs"
	.loc	13 183 0
	.fnstart
	.cfi_startproc
	.loc	13 185 22 prologue_end
	ldrb	r0, [r0]
.Ltmp53:
	bx	lr
.Ltmp54:
.Lfunc_end19:
	.size	_ZN4core5clone5impls51_$LT$impl$u20$core..clone..Clone$u20$for$u20$u8$GT$5clone17h6e1e1ebae28178b9E, .Lfunc_end19-_ZN4core5clone5impls51_$LT$impl$u20$core..clone..Clone$u20$for$u20$u8$GT$5clone17h6e1e1ebae28178b9E
	.cfi_endproc
	.cantunwind
	.fnend

	.section	".text._ZN4core5clone5impls54_$LT$impl$u20$core..clone..Clone$u20$for$u20$usize$GT$5clone17h16dca161784da84aE","ax",%progbits
	.p2align	1
	.type	_ZN4core5clone5impls54_$LT$impl$u20$core..clone..Clone$u20$for$u20$usize$GT$5clone17h16dca161784da84aE,%function
	.code	16
	.thumb_func
_ZN4core5clone5impls54_$LT$impl$u20$core..clone..Clone$u20$for$u20$usize$GT$5clone17h16dca161784da84aE:
.Lfunc_begin20:
	.loc	13 183 0
	.fnstart
	.cfi_startproc
	.loc	13 184 25 prologue_end
	ldr	r0, [r0]
.Ltmp55:
	.loc	13 185 22
	bx	lr
.Ltmp56:
.Lfunc_end20:
	.size	_ZN4core5clone5impls54_$LT$impl$u20$core..clone..Clone$u20$for$u20$usize$GT$5clone17h16dca161784da84aE, .Lfunc_end20-_ZN4core5clone5impls54_$LT$impl$u20$core..clone..Clone$u20$for$u20$usize$GT$5clone17h16dca161784da84aE
	.cfi_endproc
	.cantunwind
	.fnend

	.section	".text._ZN4core5slice29_$LT$impl$u20$$u5b$T$u5d$$GT$10as_mut_ptr17hfc17b318a2c4dfdfE","ax",%progbits
	.p2align	1
	.type	_ZN4core5slice29_$LT$impl$u20$$u5b$T$u5d$$GT$10as_mut_ptr17hfc17b318a2c4dfdfE,%function
	.code	16
	.thumb_func
_ZN4core5slice29_$LT$impl$u20$$u5b$T$u5d$$GT$10as_mut_ptr17hfc17b318a2c4dfdfE:
.Lfunc_begin21:
	.file	14 "/rustc/db9d1b20bba1968c1ec1fc49616d4742c1725b4b/library/core/src/slice\\mod.rs"
	.loc	14 458 0
	.fnstart
	.cfi_startproc
	.loc	14 460 6 prologue_end
	bx	lr
.Ltmp57:
.Lfunc_end21:
	.size	_ZN4core5slice29_$LT$impl$u20$$u5b$T$u5d$$GT$10as_mut_ptr17hfc17b318a2c4dfdfE, .Lfunc_end21-_ZN4core5slice29_$LT$impl$u20$$u5b$T$u5d$$GT$10as_mut_ptr17hfc17b318a2c4dfdfE
	.cfi_endproc
	.cantunwind
	.fnend

	.section	".text._ZN4core5slice29_$LT$impl$u20$$u5b$T$u5d$$GT$15copy_from_slice17h62fbe66ed1453669E","ax",%progbits
	.p2align	1
	.type	_ZN4core5slice29_$LT$impl$u20$$u5b$T$u5d$$GT$15copy_from_slice17h62fbe66ed1453669E,%function
	.code	16
	.thumb_func
_ZN4core5slice29_$LT$impl$u20$$u5b$T$u5d$$GT$15copy_from_slice17h62fbe66ed1453669E:
.Lfunc_begin22:
	.loc	14 3087 0
	.fnstart
	.cfi_startproc
	.save	{r4, r5, r7, lr}
	push	{r4, r5, r7, lr}
	.cfi_def_cfa_offset 16
	.cfi_offset lr, -4
	.cfi_offset r7, -8
	.cfi_offset r5, -12
	.cfi_offset r4, -16
	.setfp	r7, sp, #8
	add	r7, sp, #8
	.cfi_def_cfa r7, 8
	mov	r4, r0
.Ltmp58:
	.loc	14 3111 38 prologue_end
	mov	r0, r1
.Ltmp59:
	bl	_ZN4core5slice29_$LT$impl$u20$$u5b$T$u5d$$GT$6as_ptr17h052f412474cc3215E
.Ltmp60:
	mov	r5, r0
	.loc	14 3111 52 is_stmt 0
	mov	r0, r4
.Ltmp61:
	bl	_ZN4core5slice29_$LT$impl$u20$$u5b$T$u5d$$GT$10as_mut_ptr17hfc17b318a2c4dfdfE
.Ltmp62:
	mov	r1, r0
	.loc	14 3111 13
	mov	r0, r5
	bl	_ZN4core10intrinsics19copy_nonoverlapping17h1b316760e9a21f7bE
	.loc	14 3113 6 is_stmt 1
	pop	{r4, r5, r7, pc}
.Ltmp63:
.Lfunc_end22:
	.size	_ZN4core5slice29_$LT$impl$u20$$u5b$T$u5d$$GT$15copy_from_slice17h62fbe66ed1453669E, .Lfunc_end22-_ZN4core5slice29_$LT$impl$u20$$u5b$T$u5d$$GT$15copy_from_slice17h62fbe66ed1453669E
	.cfi_endproc
	.cantunwind
	.fnend

	.section	".text._ZN4core5slice29_$LT$impl$u20$$u5b$T$u5d$$GT$6as_ptr17h052f412474cc3215E","ax",%progbits
	.p2align	1
	.type	_ZN4core5slice29_$LT$impl$u20$$u5b$T$u5d$$GT$6as_ptr17h052f412474cc3215E,%function
	.code	16
	.thumb_func
_ZN4core5slice29_$LT$impl$u20$$u5b$T$u5d$$GT$6as_ptr17h052f412474cc3215E:
.Lfunc_begin23:
	.loc	14 430 0
	.fnstart
	.cfi_startproc
	.loc	14 432 6 prologue_end
	bx	lr
.Ltmp64:
.Lfunc_end23:
	.size	_ZN4core5slice29_$LT$impl$u20$$u5b$T$u5d$$GT$6as_ptr17h052f412474cc3215E, .Lfunc_end23-_ZN4core5slice29_$LT$impl$u20$$u5b$T$u5d$$GT$6as_ptr17h052f412474cc3215E
	.cfi_endproc
	.cantunwind
	.fnend

	.section	".text._ZN4core5slice5index74_$LT$impl$u20$core..ops..index..Index$LT$I$GT$$u20$for$u20$$u5b$T$u5d$$GT$5index17hb982854f567cd8faE","ax",%progbits
	.p2align	1
	.type	_ZN4core5slice5index74_$LT$impl$u20$core..ops..index..Index$LT$I$GT$$u20$for$u20$$u5b$T$u5d$$GT$5index17hb982854f567cd8faE,%function
	.code	16
	.thumb_func
_ZN4core5slice5index74_$LT$impl$u20$core..ops..index..Index$LT$I$GT$$u20$for$u20$$u5b$T$u5d$$GT$5index17hb982854f567cd8faE:
.Lfunc_begin24:
	.file	15 "/rustc/db9d1b20bba1968c1ec1fc49616d4742c1725b4b/library/core/src/slice\\index.rs"
	.loc	15 14 0
	.fnstart
	.cfi_startproc
	.save	{r7, lr}
	push	{r7, lr}
	.cfi_def_cfa_offset 8
	.cfi_offset lr, -4
	.cfi_offset r7, -8
	.setfp	r7, sp
	mov	r7, sp
	.cfi_def_cfa_register r7
.Ltmp65:
	.loc	15 15 9 prologue_end
	bl	_ZN97_$LT$core..ops..range..RangeFull$u20$as$u20$core..slice..index..SliceIndex$LT$$u5b$T$u5d$$GT$$GT$5index17h9273492733351ec3E
.Ltmp66:
	.loc	15 16 6
	pop	{r7, pc}
.Ltmp67:
.Lfunc_end24:
	.size	_ZN4core5slice5index74_$LT$impl$u20$core..ops..index..Index$LT$I$GT$$u20$for$u20$$u5b$T$u5d$$GT$5index17hb982854f567cd8faE, .Lfunc_end24-_ZN4core5slice5index74_$LT$impl$u20$core..ops..index..Index$LT$I$GT$$u20$for$u20$$u5b$T$u5d$$GT$5index17hb982854f567cd8faE
	.cfi_endproc
	.cantunwind
	.fnend

	.section	.text.unlikely._ZN4core9panicking13assert_failed17h2ada0f01fe89275cE,"ax",%progbits
	.p2align	1
	.type	_ZN4core9panicking13assert_failed17h2ada0f01fe89275cE,%function
	.code	16
	.thumb_func
_ZN4core9panicking13assert_failed17h2ada0f01fe89275cE:
.Lfunc_begin25:
	.file	16 "/rustc/db9d1b20bba1968c1ec1fc49616d4742c1725b4b/library/core/src\\panicking.rs"
	.loc	16 135 0
	.fnstart
	.cfi_startproc
	.save	{r7, lr}
	push	{r7, lr}
	.cfi_def_cfa_offset 8
	.cfi_offset lr, -4
	.cfi_offset r7, -8
	.setfp	r7, sp
	mov	r7, sp
	.cfi_def_cfa_register r7
	.pad	#48
	sub	sp, #48
	strd	r0, r1, [sp, #16]
	add.w	r12, sp, #24
.Ltmp68:
	.loc	16 145 46 prologue_end
	mov	r1, r12
.Ltmp69:
	ldm.w	r2, {r0, r3, r4, r5, r6, lr}
.Ltmp70:
	stm.w	r1, {r0, r3, r4, r5, r6, lr}
.Ltmp71:
	.loc	16 145 5 is_stmt 0
	movw	r0, :lower16:.L__unnamed_2
	movt	r0, :upper16:.L__unnamed_2
	movw	r2, :lower16:.L__unnamed_1
.Ltmp72:
	movt	r2, :upper16:.L__unnamed_1
	strd	r2, r12, [sp]
	str	r0, [sp, #8]
	add	r1, sp, #16
	add	r3, sp, #20
	movs	r0, #0
	bl	_ZN4core9panicking19assert_failed_inner17hf111e574873d4158E
	.inst.n	0xdefe
.Ltmp73:
.Lfunc_end25:
	.size	_ZN4core9panicking13assert_failed17h2ada0f01fe89275cE, .Lfunc_end25-_ZN4core9panicking13assert_failed17h2ada0f01fe89275cE
	.cfi_endproc
	.cantunwind
	.fnend

	.section	".text._ZN63_$LT$I$u20$as$u20$core..iter..traits..collect..IntoIterator$GT$9into_iter17h68f643edbae10ba2E","ax",%progbits
	.p2align	1
	.type	_ZN63_$LT$I$u20$as$u20$core..iter..traits..collect..IntoIterator$GT$9into_iter17h68f643edbae10ba2E,%function
	.code	16
	.thumb_func
_ZN63_$LT$I$u20$as$u20$core..iter..traits..collect..IntoIterator$GT$9into_iter17h68f643edbae10ba2E:
.Lfunc_begin26:
	.file	17 "/rustc/db9d1b20bba1968c1ec1fc49616d4742c1725b4b/library/core/src/iter/traits\\collect.rs"
	.loc	17 243 0 is_stmt 1
	.fnstart
	.cfi_startproc
	.loc	17 245 6 prologue_end
	bx	lr
.Ltmp74:
.Lfunc_end26:
	.size	_ZN63_$LT$I$u20$as$u20$core..iter..traits..collect..IntoIterator$GT$9into_iter17h68f643edbae10ba2E, .Lfunc_end26-_ZN63_$LT$I$u20$as$u20$core..iter..traits..collect..IntoIterator$GT$9into_iter17h68f643edbae10ba2E
	.cfi_endproc
	.cantunwind
	.fnend

	.section	".text._ZN69_$LT$T$u20$as$u20$core..array..equality..SpecArrayEq$LT$U$C$_$GT$$GT$7spec_eq17h243197d4c20727a9E","ax",%progbits
	.p2align	1
	.type	_ZN69_$LT$T$u20$as$u20$core..array..equality..SpecArrayEq$LT$U$C$_$GT$$GT$7spec_eq17h243197d4c20727a9E,%function
	.code	16
	.thumb_func
_ZN69_$LT$T$u20$as$u20$core..array..equality..SpecArrayEq$LT$U$C$_$GT$$GT$7spec_eq17h243197d4c20727a9E:
.Lfunc_begin27:
	.loc	12 128 0
	.fnstart
	.cfi_startproc
	.save	{r4, r6, r7, lr}
	push	{r4, r6, r7, lr}
	.cfi_def_cfa_offset 16
	.cfi_offset lr, -4
	.cfi_offset r7, -8
	.cfi_offset r6, -12
	.cfi_offset r4, -16
	.setfp	r7, sp, #8
	add	r7, sp, #8
	.cfi_def_cfa r7, 8
	mov	r4, r0
.Ltmp75:
	.loc	12 131 23 prologue_end
	mov	r0, r1
.Ltmp76:
	bl	_ZN4core5slice29_$LT$impl$u20$$u5b$T$u5d$$GT$6as_ptr17h052f412474cc3215E
.Ltmp77:
	bl	_ZN4core3ptr9const_ptr33_$LT$impl$u20$$BP$const$u20$T$GT$4cast17h6610ea5ef4ccdfe9E
	mov	r1, r0
.Ltmp78:
	.loc	12 132 13
	mov	r0, r4
.Ltmp79:
	movs	r2, #16
	bl	memcmp
.Ltmp80:
	clz	r0, r0
	lsrs	r0, r0, #5
.Ltmp81:
	.loc	12 134 6
	pop	{r4, r6, r7, pc}
.Ltmp82:
.Lfunc_end27:
	.size	_ZN69_$LT$T$u20$as$u20$core..array..equality..SpecArrayEq$LT$U$C$_$GT$$GT$7spec_eq17h243197d4c20727a9E, .Lfunc_end27-_ZN69_$LT$T$u20$as$u20$core..array..equality..SpecArrayEq$LT$U$C$_$GT$$GT$7spec_eq17h243197d4c20727a9E
	.cfi_endproc
	.cantunwind
	.fnend

	.section	".text._ZN89_$LT$core..ops..range..Range$LT$T$GT$$u20$as$u20$core..iter..range..RangeIteratorImpl$GT$9spec_next17h9e22d44170085d2fE","ax",%progbits
	.p2align	1
	.type	_ZN89_$LT$core..ops..range..Range$LT$T$GT$$u20$as$u20$core..iter..range..RangeIteratorImpl$GT$9spec_next17h9e22d44170085d2fE,%function
	.code	16
	.thumb_func
_ZN89_$LT$core..ops..range..Range$LT$T$GT$$u20$as$u20$core..iter..range..RangeIteratorImpl$GT$9spec_next17h9e22d44170085d2fE:
.Lfunc_begin28:
	.loc	4 620 0
	.fnstart
	.cfi_startproc
	.save	{r4, r5, r7, lr}
	push	{r4, r5, r7, lr}
	.cfi_def_cfa_offset 16
	.cfi_offset lr, -4
	.cfi_offset r7, -8
	.cfi_offset r5, -12
	.cfi_offset r4, -16
	.setfp	r7, sp, #8
	add	r7, sp, #8
	.cfi_def_cfa r7, 8
	mov	r5, r0
.Ltmp83:
	.loc	4 621 25 prologue_end
	adds	r1, r0, #1
	.loc	4 621 12 is_stmt 0
	bl	_ZN4core3cmp5impls54_$LT$impl$u20$core..cmp..PartialOrd$u20$for$u20$u8$GT$2lt17ha73b01d0dc4d6f51E
	mov	r4, r0
	cbz	r0, .LBB28_2
.Ltmp84:
	.loc	4 623 54 is_stmt 1
	mov	r0, r5
	bl	_ZN4core5clone5impls51_$LT$impl$u20$core..clone..Clone$u20$for$u20$u8$GT$5clone17h6e1e1ebae28178b9E
	.loc	4 623 30 is_stmt 0
	bl	_ZN46_$LT$u8$u20$as$u20$core..iter..range..Step$GT$17forward_unchecked17h6e8c7b17f40da170E
	mov	r1, r0
.Ltmp85:
	.loc	4 624 18 is_stmt 1
	mov	r0, r5
	bl	_ZN4core3mem7replace17hca17d03d47a0b465E
.Ltmp86:
	mov	r1, r0
.Ltmp87:
.LBB28_2:
	.loc	4 628 6
	mov	r0, r4
	pop	{r4, r5, r7, pc}
.Ltmp88:
.Lfunc_end28:
	.size	_ZN89_$LT$core..ops..range..Range$LT$T$GT$$u20$as$u20$core..iter..range..RangeIteratorImpl$GT$9spec_next17h9e22d44170085d2fE, .Lfunc_end28-_ZN89_$LT$core..ops..range..Range$LT$T$GT$$u20$as$u20$core..iter..range..RangeIteratorImpl$GT$9spec_next17h9e22d44170085d2fE
	.cfi_endproc
	.cantunwind
	.fnend

	.section	".text._ZN89_$LT$core..ops..range..Range$LT$T$GT$$u20$as$u20$core..iter..range..RangeIteratorImpl$GT$9spec_next17hd50387ef7723c30cE","ax",%progbits
	.p2align	1
	.type	_ZN89_$LT$core..ops..range..Range$LT$T$GT$$u20$as$u20$core..iter..range..RangeIteratorImpl$GT$9spec_next17hd50387ef7723c30cE,%function
	.code	16
	.thumb_func
_ZN89_$LT$core..ops..range..Range$LT$T$GT$$u20$as$u20$core..iter..range..RangeIteratorImpl$GT$9spec_next17hd50387ef7723c30cE:
.Lfunc_begin29:
	.loc	4 620 0
	.fnstart
	.cfi_startproc
	.save	{r4, r6, r7, lr}
	push	{r4, r6, r7, lr}
	.cfi_def_cfa_offset 16
	.cfi_offset lr, -4
	.cfi_offset r7, -8
	.cfi_offset r6, -12
	.cfi_offset r4, -16
	.setfp	r7, sp, #8
	add	r7, sp, #8
	.cfi_def_cfa r7, 8
	mov	r4, r0
.Ltmp89:
	.loc	4 621 25 prologue_end
	adds	r1, r0, #4
	.loc	4 621 12 is_stmt 0
	bl	_ZN4core3cmp5impls57_$LT$impl$u20$core..cmp..PartialOrd$u20$for$u20$usize$GT$2lt17hbbefb1a93b0b532cE
	cbz	r0, .LBB29_2
.Ltmp90:
	.loc	4 623 54 is_stmt 1
	mov	r0, r4
	bl	_ZN4core5clone5impls54_$LT$impl$u20$core..clone..Clone$u20$for$u20$usize$GT$5clone17h16dca161784da84aE
	.loc	4 623 30 is_stmt 0
	bl	_ZN49_$LT$usize$u20$as$u20$core..iter..range..Step$GT$17forward_unchecked17h41c4f27ac3428d36E
	mov	r1, r0
.Ltmp91:
	.loc	4 624 18 is_stmt 1
	mov	r0, r4
	bl	_ZN4core3mem7replace17h3e57e96ceb21c253E
.Ltmp92:
	mov	r1, r0
	movs	r0, #1
.Ltmp93:
	.loc	4 628 6
	pop	{r4, r6, r7, pc}
.Ltmp94:
.LBB29_2:
	.loc	4 0 6 is_stmt 0
	movs	r0, #0
	.loc	4 628 6
	pop	{r4, r6, r7, pc}
.Ltmp95:
.Lfunc_end29:
	.size	_ZN89_$LT$core..ops..range..Range$LT$T$GT$$u20$as$u20$core..iter..range..RangeIteratorImpl$GT$9spec_next17hd50387ef7723c30cE, .Lfunc_end29-_ZN89_$LT$core..ops..range..Range$LT$T$GT$$u20$as$u20$core..iter..range..RangeIteratorImpl$GT$9spec_next17hd50387ef7723c30cE
	.cfi_endproc
	.cantunwind
	.fnend

	.section	".text._ZN97_$LT$core..ops..range..RangeFull$u20$as$u20$core..slice..index..SliceIndex$LT$$u5b$T$u5d$$GT$$GT$5index17h9273492733351ec3E","ax",%progbits
	.p2align	1
	.type	_ZN97_$LT$core..ops..range..RangeFull$u20$as$u20$core..slice..index..SliceIndex$LT$$u5b$T$u5d$$GT$$GT$5index17h9273492733351ec3E,%function
	.code	16
	.thumb_func
_ZN97_$LT$core..ops..range..RangeFull$u20$as$u20$core..slice..index..SliceIndex$LT$$u5b$T$u5d$$GT$$GT$5index17h9273492733351ec3E:
.Lfunc_begin30:
	.loc	15 365 0 is_stmt 1
	.fnstart
	.cfi_startproc
	.loc	15 367 6 prologue_end
	movs	r1, #16
	bx	lr
.Ltmp96:
.Lfunc_end30:
	.size	_ZN97_$LT$core..ops..range..RangeFull$u20$as$u20$core..slice..index..SliceIndex$LT$$u5b$T$u5d$$GT$$GT$5index17h9273492733351ec3E, .Lfunc_end30-_ZN97_$LT$core..ops..range..RangeFull$u20$as$u20$core..slice..index..SliceIndex$LT$$u5b$T$u5d$$GT$$GT$5index17h9273492733351ec3E
	.cfi_endproc
	.cantunwind
	.fnend

	.section	.text._ZN16psoc6_helloworld18aes_using_1d_array14get_sbox_value17h4a52c89ebeeaba73E,"ax",%progbits
	.p2align	1
	.type	_ZN16psoc6_helloworld18aes_using_1d_array14get_sbox_value17h4a52c89ebeeaba73E,%function
	.code	16
	.thumb_func
_ZN16psoc6_helloworld18aes_using_1d_array14get_sbox_value17h4a52c89ebeeaba73E:
.Lfunc_begin31:
	.loc	1 66 0
	.fnstart
	.cfi_startproc
	.loc	1 68 10 prologue_end
	uxtb	r0, r0
.Ltmp97:
	.loc	1 68 5 is_stmt 0
	movw	r1, :lower16:_ZN16psoc6_helloworld18aes_using_1d_array4sbox17h0222d62579877ce2E
	movt	r1, :upper16:_ZN16psoc6_helloworld18aes_using_1d_array4sbox17h0222d62579877ce2E
	.loc	1 69 4 is_stmt 1
	ldrb	r0, [r1, r0]
	bx	lr
.Ltmp98:
.Lfunc_end31:
	.size	_ZN16psoc6_helloworld18aes_using_1d_array14get_sbox_value17h4a52c89ebeeaba73E, .Lfunc_end31-_ZN16psoc6_helloworld18aes_using_1d_array14get_sbox_value17h4a52c89ebeeaba73E
	.cfi_endproc
	.cantunwind
	.fnend

	.section	.text._ZN16psoc6_helloworld18aes_using_1d_array3AES13key_expansion17hb3d707a7f2d145e3E,"ax",%progbits
	.p2align	1
	.type	_ZN16psoc6_helloworld18aes_using_1d_array3AES13key_expansion17hb3d707a7f2d145e3E,%function
	.code	16
	.thumb_func
_ZN16psoc6_helloworld18aes_using_1d_array3AES13key_expansion17hb3d707a7f2d145e3E:
.Lfunc_begin32:
	.loc	1 84 0
	.fnstart
	.cfi_startproc
	.save	{r4, r5, r6, r7, lr}
	push	{r4, r5, r6, r7, lr}
	.cfi_def_cfa_offset 20
	.cfi_offset lr, -4
	.cfi_offset r7, -8
	.cfi_offset r6, -12
	.cfi_offset r5, -16
	.cfi_offset r4, -20
	.setfp	r7, sp, #12
	add	r7, sp, #12
	.cfi_def_cfa r7, 8
	.save	{r8, r9, r10, r11}
	push.w	{r8, r9, r10, r11}
	.cfi_offset r11, -24
	.cfi_offset r10, -28
	.cfi_offset r9, -32
	.cfi_offset r8, -36
	.pad	#28
	sub	sp, #28
	mov	r4, r0
.Ltmp99:
	mov.w	r8, #0
.Ltmp100:
	.loc	1 90 36 prologue_end
	str.w	r8, [sp, #12]
.Ltmp101:
	.loc	1 92 22
	movs	r0, #0
	movs	r1, #4
	bl	_ZN63_$LT$I$u20$as$u20$core..iter..traits..collect..IntoIterator$GT$9into_iter17h68f643edbae10ba2E
	str	r1, [sp, #4]
	strb.w	r1, [sp, #17]
	str	r0, [sp, #8]
	strb.w	r0, [sp, #16]
	ldr	r6, [r4, #4]
	add	r0, sp, #16
.Ltmp102:
	.loc	1 92 22 is_stmt 0
	bl	_ZN4core4iter5range101_$LT$impl$u20$core..iter..traits..iterator..Iterator$u20$for$u20$core..ops..range..Range$LT$A$GT$$GT$4next17hcabbf5f88e3653c1E
	lsls	r0, r0, #31
	beq	.LBB32_8
.Ltmp103:
	.loc	1 0 22
	add	r5, sp, #16
.Ltmp104:
.LBB32_2:
	.loc	1 92 22
	uxtb	r0, r1
.Ltmp105:
	.loc	1 94 63 is_stmt 1
	lsls	r1, r0, #2
.Ltmp106:
	cmp.w	r8, r1, lsr #8
	bne.w	.LBB32_37
.Ltmp107:
	.loc	1 94 62 is_stmt 0
	uxtb	r0, r1
	.loc	1 94 53
	cmp	r0, #15
	bhi.w	.LBB32_38
.Ltmp108:
	.loc	1 94 13
	adds	r2, r4, r0
	.loc	1 94 53
	ldrb	r0, [r6, r0]
	.loc	1 94 13
	strb	r0, [r2, #8]
	.loc	1 95 62 is_stmt 1
	orr	r0, r1, #1
	uxtb	r0, r0
	.loc	1 95 53 is_stmt 0
	cmp	r0, #16
	bhs.w	.LBB32_39
.Ltmp109:
	.loc	1 95 13
	adds	r2, r4, r0
	.loc	1 95 53
	ldrb	r0, [r6, r0]
	.loc	1 95 13
	strb	r0, [r2, #8]
	.loc	1 96 62 is_stmt 1
	orr	r0, r1, #2
	uxtb	r0, r0
	.loc	1 96 53 is_stmt 0
	cmp	r0, #16
	bhs.w	.LBB32_40
.Ltmp110:
	.loc	1 96 13
	adds	r2, r4, r0
	.loc	1 96 53
	ldrb	r0, [r6, r0]
	.loc	1 96 13
	strb	r0, [r2, #8]
	.loc	1 97 62 is_stmt 1
	orr	r0, r1, #3
	uxtb	r0, r0
	.loc	1 97 53 is_stmt 0
	cmp	r0, #16
	bhs.w	.LBB32_41
.Ltmp111:
	.loc	1 97 13
	adds	r1, r4, r0
	.loc	1 97 53
	ldrb	r0, [r6, r0]
	.loc	1 97 13
	strb	r0, [r1, #8]
.Ltmp112:
	.loc	1 92 22 is_stmt 1
	mov	r0, r5
	bl	_ZN4core4iter5range101_$LT$impl$u20$core..iter..traits..iterator..Iterator$u20$for$u20$core..ops..range..Range$LT$A$GT$$GT$4next17hcabbf5f88e3653c1E
	lsls	r0, r0, #31
	bne	.LBB32_2
.Ltmp113:
.LBB32_8:
	.loc	1 101 20
	movs	r0, #4
	movs	r1, #44
	bl	_ZN63_$LT$I$u20$as$u20$core..iter..traits..collect..IntoIterator$GT$9into_iter17h68f643edbae10ba2E
	strb.w	r1, [sp, #21]
	strb.w	r0, [sp, #20]
	add	r0, sp, #20
.Ltmp114:
	.loc	1 101 20 is_stmt 0
	bl	_ZN4core4iter5range101_$LT$impl$u20$core..iter..traits..iterator..Iterator$u20$for$u20$core..ops..range..Range$LT$A$GT$$GT$4next17hcabbf5f88e3653c1E
	lsls	r0, r0, #31
	beq.w	.LBB32_32
.Ltmp115:
	.loc	1 0 20
	mov	r8, r1
	add.w	r10, sp, #24
	add.w	r11, sp, #12
.Ltmp116:
.LBB32_10:
	.loc	1 103 22 is_stmt 1
	ldr	r0, [sp, #4]
	strb.w	r0, [sp, #25]
	ldr	r0, [sp, #8]
	strb.w	r0, [sp, #24]
.Ltmp117:
	.loc	1 0 0 is_stmt 0
	mov.w	r0, #-1
	uxtab	r0, r0, r8
	uxtb.w	r9, r0
	subs.w	r5, r9, r0
	it	ne
	movne	r5, #1
	ubfx	r6, r9, #6, #24
	cmp	r6, #0
	it	ne
	movne	r6, #1
.Ltmp118:
	.loc	1 103 22
	mov	r0, r10
	bl	_ZN4core4iter5range101_$LT$impl$u20$core..iter..traits..iterator..Iterator$u20$for$u20$core..ops..range..Range$LT$A$GT$$GT$4next17hcabbf5f88e3653c1E
	lsls	r0, r0, #31
	beq	.LBB32_18
.Ltmp119:
	cmp	r5, #0
	bne.w	.LBB32_55
.Ltmp120:
	cmp	r6, #0
	bne.w	.LBB32_56
.Ltmp121:
	.loc	1 0 22
	lsl.w	r5, r9, #2
.Ltmp122:
.LBB32_14:
	.loc	1 105 28 is_stmt 1
	uxtb	r0, r5
.Ltmp123:
	uxtab	r2, r0, r1
	uxtb	r0, r2
	cmp	r0, r2
	bne.w	.LBB32_33
.Ltmp124:
	.loc	1 106 33
	cmp	r0, #176
	bhs.w	.LBB32_34
.Ltmp125:
	.loc	1 106 21 is_stmt 0
	uxtb	r1, r1
.Ltmp126:
	.loc	1 106 15
	cmp	r1, #4
	bhs.w	.LBB32_36
.Ltmp127:
	.loc	1 106 33
	add	r0, r4
.Ltmp128:
	ldrb	r0, [r0, #8]
	.loc	1 106 15
	strb.w	r0, [r11, r1]
.Ltmp129:
	.loc	1 103 22 is_stmt 1
	mov	r0, r10
	bl	_ZN4core4iter5range101_$LT$impl$u20$core..iter..traits..iterator..Iterator$u20$for$u20$core..ops..range..Range$LT$A$GT$$GT$4next17hcabbf5f88e3653c1E
	lsls	r0, r0, #31
	bne	.LBB32_14
.Ltmp130:
.LBB32_18:
	.loc	1 108 16
	lsls.w	r0, r8, #30
	bne	.LBB32_20
.Ltmp131:
	.loc	1 115 21
	ldrb.w	r1, [sp, #12]
.Ltmp132:
	.loc	1 116 28
	str	r1, [sp]
	ldrb.w	r0, [sp, #13]
	.loc	1 117 28
	ldrb.w	r9, [sp, #14]
	.loc	1 118 28
	ldrb.w	r6, [sp, #15]
	.loc	1 116 17
	strb.w	r0, [sp, #12]
	.loc	1 118 17
	strb.w	r6, [sp, #14]
	.loc	1 117 17
	strb.w	r9, [sp, #13]
	.loc	1 119 17
	strb.w	r1, [sp, #15]
.Ltmp133:
	.loc	1 127 28
	bl	_ZN16psoc6_helloworld18aes_using_1d_array14get_sbox_value17h4a52c89ebeeaba73E
	mov	r5, r0
	.loc	1 127 17 is_stmt 0
	strb.w	r0, [sp, #12]
	.loc	1 128 28 is_stmt 1
	mov	r0, r9
	bl	_ZN16psoc6_helloworld18aes_using_1d_array14get_sbox_value17h4a52c89ebeeaba73E
	.loc	1 128 17 is_stmt 0
	strb.w	r0, [sp, #13]
	.loc	1 129 28 is_stmt 1
	mov	r0, r6
	bl	_ZN16psoc6_helloworld18aes_using_1d_array14get_sbox_value17h4a52c89ebeeaba73E
	.loc	1 129 17 is_stmt 0
	strb.w	r0, [sp, #14]
	.loc	1 130 28 is_stmt 1
	ldr	r0, [sp]
	bl	_ZN16psoc6_helloworld18aes_using_1d_array14get_sbox_value17h4a52c89ebeeaba73E
	.loc	1 130 17 is_stmt 0
	strb.w	r0, [sp, #15]
	.loc	1 133 43 is_stmt 1
	uxtb.w	r0, r8
	lsrs	r0, r0, #2
	.loc	1 133 38 is_stmt 0
	movw	r1, :lower16:_ZN16psoc6_helloworld18aes_using_1d_array4Rcon17hd315d3ea6fb0175cE
	movt	r1, :upper16:_ZN16psoc6_helloworld18aes_using_1d_array4Rcon17hd315d3ea6fb0175cE
	ldrb	r0, [r1, r0]
	.loc	1 133 15
	eors	r0, r5
	strb.w	r0, [sp, #12]
.Ltmp134:
.LBB32_20:
	.loc	1 145 66 is_stmt 1
	mvn	r0, #3
	uxtab	r1, r0, r8
	uxtb	r0, r1
	cmp	r0, r1
	bne.w	.LBB32_43
.Ltmp135:
	lsls	r2, r0, #2
	movs	r6, #0
	cmp.w	r6, r2, lsr #8
	bne.w	.LBB32_44
.Ltmp136:
	.loc	1 145 65 is_stmt 0
	uxtb	r0, r2
	.loc	1 145 51
	cmp	r0, #175
	bhi.w	.LBB32_46
.Ltmp137:
	.loc	1 145 28
	uxtb.w	r1, r8
	lsls	r3, r1, #2
	cmp.w	r6, r3, lsr #8
	bne.w	.LBB32_47
.Ltmp138:
	.loc	1 145 27
	uxtb	r1, r3
	.loc	1 145 13
	cmp	r1, #175
	bhi.w	.LBB32_48
.Ltmp139:
	.loc	1 0 0
	add	r0, r4
	ldrb	r0, [r0, #8]
	ldrb.w	r6, [sp, #12]
	.loc	1 145 13
	add	r1, r4
	eors	r0, r6
	strb	r0, [r1, #8]
	.loc	1 146 65 is_stmt 1
	orr	r0, r2, #1
	uxtb	r0, r0
	.loc	1 146 51 is_stmt 0
	cmp	r0, #176
	bhs.w	.LBB32_49
.Ltmp140:
	.loc	1 146 27
	orr	r1, r3, #1
	uxtb	r1, r1
	.loc	1 146 13
	cmp	r1, #176
	bhs.w	.LBB32_50
.Ltmp141:
	.loc	1 146 51
	add.w	r6, r4, #8
	ldrb	r0, [r6, r0]
	.loc	1 146 96
	ldrb.w	r5, [sp, #13]
	.loc	1 146 13
	eors	r0, r5
	strb	r0, [r6, r1]
	.loc	1 147 65 is_stmt 1
	orr	r0, r2, #2
	uxtb	r0, r0
	.loc	1 147 51 is_stmt 0
	cmp	r0, #176
	bhs.w	.LBB32_51
.Ltmp142:
	.loc	1 147 27
	orr	r1, r3, #2
	uxtb	r1, r1
	.loc	1 147 13
	cmp	r1, #176
	bhs.w	.LBB32_52
.Ltmp143:
	.loc	1 147 51
	ldrb	r0, [r6, r0]
	.loc	1 147 96
	ldrb.w	r5, [sp, #14]
	.loc	1 147 13
	eors	r0, r5
	strb	r0, [r6, r1]
	.loc	1 148 65 is_stmt 1
	orr	r0, r2, #3
	uxtb	r0, r0
	.loc	1 148 51 is_stmt 0
	cmp	r0, #176
	bhs.w	.LBB32_53
.Ltmp144:
	.loc	1 148 27
	orr	r1, r3, #3
	uxtb	r1, r1
	.loc	1 148 13
	cmp	r1, #176
	bhs.w	.LBB32_54
.Ltmp145:
	.loc	1 148 51
	ldrb	r0, [r6, r0]
	.loc	1 148 96
	ldrb.w	r2, [sp, #15]
	.loc	1 148 13
	eors	r0, r2
	strb	r0, [r6, r1]
.Ltmp146:
	.loc	1 101 20 is_stmt 1
	add	r0, sp, #20
	bl	_ZN4core4iter5range101_$LT$impl$u20$core..iter..traits..iterator..Iterator$u20$for$u20$core..ops..range..Range$LT$A$GT$$GT$4next17hcabbf5f88e3653c1E
	mov	r8, r1
.Ltmp147:
	lsls	r0, r0, #31
	bne.w	.LBB32_10
.Ltmp148:
.LBB32_32:
	.loc	1 151 12
	add	sp, #28
	pop.w	{r8, r9, r10, r11}
	pop	{r4, r5, r6, r7, pc}
.Ltmp149:
.LBB32_33:
	.loc	1 105 28
	movw	r0, :lower16:str.1
	movt	r0, :upper16:str.1
	movw	r2, :lower16:.L__unnamed_3
	movt	r2, :upper16:.L__unnamed_3
	movs	r1, #28
.Ltmp150:
	bl	_ZN4core9panicking5panic17h9d087799dbe178ebE
	.inst.n	0xdefe
.Ltmp151:
.LBB32_34:
	.loc	1 106 33
	movw	r2, :lower16:.L__unnamed_4
	movt	r2, :upper16:.L__unnamed_4
.Ltmp152:
.LBB32_35:
	.loc	1 0 0 is_stmt 0
	movs	r1, #176
	bl	_ZN4core9panicking18panic_bounds_check17h80646fc287624916E
	.inst.n	0xdefe
.Ltmp153:
.LBB32_36:
	.loc	1 106 15
	movw	r2, :lower16:.L__unnamed_5
	movt	r2, :upper16:.L__unnamed_5
	mov	r0, r1
.Ltmp154:
	movs	r1, #4
	bl	_ZN4core9panicking18panic_bounds_check17h80646fc287624916E
	.inst.n	0xdefe
.Ltmp155:
.LBB32_37:
	.loc	1 94 63 is_stmt 1
	movw	r0, :lower16:str.0
	movt	r0, :upper16:str.0
	movw	r2, :lower16:.L__unnamed_6
	movt	r2, :upper16:.L__unnamed_6
	b	.LBB32_58
.Ltmp156:
.LBB32_38:
	.loc	1 94 53 is_stmt 0
	movw	r2, :lower16:.L__unnamed_7
	movt	r2, :upper16:.L__unnamed_7
	b	.LBB32_42
.Ltmp157:
.LBB32_39:
	.loc	1 95 53 is_stmt 1
	movw	r2, :lower16:.L__unnamed_8
	movt	r2, :upper16:.L__unnamed_8
	b	.LBB32_42
.Ltmp158:
.LBB32_40:
	.loc	1 96 53
	movw	r2, :lower16:.L__unnamed_9
	movt	r2, :upper16:.L__unnamed_9
	b	.LBB32_42
.Ltmp159:
.LBB32_41:
	.loc	1 97 53
	movw	r2, :lower16:.L__unnamed_10
	movt	r2, :upper16:.L__unnamed_10
.Ltmp160:
.LBB32_42:
	.loc	1 0 0 is_stmt 0
	movs	r1, #16
	bl	_ZN4core9panicking18panic_bounds_check17h80646fc287624916E
	.inst.n	0xdefe
.Ltmp161:
.LBB32_43:
	.loc	1 145 66 is_stmt 1
	movw	r0, :lower16:str.2
	movt	r0, :upper16:str.2
	b	.LBB32_45
.Ltmp162:
.LBB32_44:
	movw	r0, :lower16:str.0
	movt	r0, :upper16:str.0
.Ltmp163:
.LBB32_45:
	movw	r2, :lower16:.L__unnamed_11
	movt	r2, :upper16:.L__unnamed_11
	b	.LBB32_58
.Ltmp164:
.LBB32_46:
	.loc	1 145 51 is_stmt 0
	movw	r2, :lower16:.L__unnamed_12
	movt	r2, :upper16:.L__unnamed_12
	b	.LBB32_35
.Ltmp165:
.LBB32_47:
	.loc	1 145 28
	movw	r0, :lower16:str.0
	movt	r0, :upper16:str.0
	movw	r2, :lower16:.L__unnamed_13
	movt	r2, :upper16:.L__unnamed_13
	b	.LBB32_58
.Ltmp166:
.LBB32_48:
	.loc	1 145 13
	movw	r2, :lower16:.L__unnamed_14
	movt	r2, :upper16:.L__unnamed_14
	.loc	1 0 0
	mov	r0, r1
	b	.LBB32_35
.Ltmp167:
.LBB32_49:
	.loc	1 146 51 is_stmt 1
	movw	r2, :lower16:.L__unnamed_15
	movt	r2, :upper16:.L__unnamed_15
	b	.LBB32_35
.Ltmp168:
.LBB32_50:
	.loc	1 146 13 is_stmt 0
	movw	r2, :lower16:.L__unnamed_16
	movt	r2, :upper16:.L__unnamed_16
	.loc	1 0 0
	mov	r0, r1
	b	.LBB32_35
.Ltmp169:
.LBB32_51:
	.loc	1 147 51 is_stmt 1
	movw	r2, :lower16:.L__unnamed_17
	movt	r2, :upper16:.L__unnamed_17
	b	.LBB32_35
.Ltmp170:
.LBB32_52:
	.loc	1 147 13 is_stmt 0
	movw	r2, :lower16:.L__unnamed_18
	movt	r2, :upper16:.L__unnamed_18
	.loc	1 0 0
	mov	r0, r1
	b	.LBB32_35
.Ltmp171:
.LBB32_53:
	.loc	1 148 51 is_stmt 1
	movw	r2, :lower16:.L__unnamed_19
	movt	r2, :upper16:.L__unnamed_19
	b	.LBB32_35
.Ltmp172:
.LBB32_54:
	.loc	1 148 13 is_stmt 0
	movw	r2, :lower16:.L__unnamed_20
	movt	r2, :upper16:.L__unnamed_20
	.loc	1 0 0
	mov	r0, r1
	b	.LBB32_35
.Ltmp173:
.LBB32_55:
	.loc	1 105 28 is_stmt 1
	movw	r0, :lower16:str.2
	movt	r0, :upper16:str.2
	b	.LBB32_57
.Ltmp174:
.LBB32_56:
	movw	r0, :lower16:str.0
	movt	r0, :upper16:str.0
.Ltmp175:
.LBB32_57:
	movw	r2, :lower16:.L__unnamed_3
	movt	r2, :upper16:.L__unnamed_3
.Ltmp176:
.LBB32_58:
	.loc	1 0 0 is_stmt 0
	movs	r1, #33
	bl	_ZN4core9panicking5panic17h9d087799dbe178ebE
	.inst.n	0xdefe
.Ltmp177:
.Lfunc_end32:
	.size	_ZN16psoc6_helloworld18aes_using_1d_array3AES13key_expansion17hb3d707a7f2d145e3E, .Lfunc_end32-_ZN16psoc6_helloworld18aes_using_1d_array3AES13key_expansion17hb3d707a7f2d145e3E
	.cfi_endproc
	.cantunwind
	.fnend

	.section	.text._ZN16psoc6_helloworld18aes_using_1d_array3AES13add_round_key17h260249fcde2671f7E,"ax",%progbits
	.p2align	1
	.type	_ZN16psoc6_helloworld18aes_using_1d_array3AES13add_round_key17h260249fcde2671f7E,%function
	.code	16
	.thumb_func
_ZN16psoc6_helloworld18aes_using_1d_array3AES13add_round_key17h260249fcde2671f7E:
.Lfunc_begin33:
	.loc	1 152 0 is_stmt 1
	.fnstart
	.cfi_startproc
	.save	{r4, r5, r6, r7, lr}
	push	{r4, r5, r6, r7, lr}
	.cfi_def_cfa_offset 20
	.cfi_offset lr, -4
	.cfi_offset r7, -8
	.cfi_offset r6, -12
	.cfi_offset r5, -16
	.cfi_offset r4, -20
	.setfp	r7, sp, #12
	add	r7, sp, #12
	.cfi_def_cfa r7, 8
	.save	{r8, r9, r11}
	push.w	{r8, r9, r11}
	.cfi_offset r11, -24
	.cfi_offset r9, -28
	.cfi_offset r8, -32
	.pad	#8
	sub	sp, #8
	mov	r5, r1
.Ltmp178:
	mov	r4, r0
.Ltmp179:
	.loc	1 156 24 prologue_end
	movs	r0, #0
	movs	r1, #16
	bl	_ZN63_$LT$I$u20$as$u20$core..iter..traits..collect..IntoIterator$GT$9into_iter17h68f643edbae10ba2E
	strb.w	r1, [sp, #5]
	strb.w	r0, [sp, #4]
	ldr	r6, [r4]
	uxtb	r0, r5
.Ltmp180:
	.loc	1 0 0 is_stmt 0
	ubfx	r9, r0, #6, #24
	cmp.w	r9, #0
	it	ne
	movne.w	r9, #1
	lsls	r0, r0, #2
	uxtb.w	r8, r0
	ubfx	r5, r8, #6, #24
.Ltmp181:
	cmp	r5, #0
	it	ne
	movne	r5, #1
	add	r0, sp, #4
.Ltmp182:
	.loc	1 156 24
	bl	_ZN4core4iter5range101_$LT$impl$u20$core..iter..traits..iterator..Iterator$u20$for$u20$core..ops..range..Range$LT$A$GT$$GT$4next17hcabbf5f88e3653c1E
	lsls	r0, r0, #31
	beq	.LBB33_8
.Ltmp183:
	cmp.w	r9, #0
	it	eq
	cmpeq	r5, #0
	beq	.LBB33_3
.Ltmp184:
	.loc	1 158 31 is_stmt 1
	movw	r0, :lower16:str.0
	movt	r0, :upper16:str.0
	movw	r2, :lower16:.L__unnamed_21
	movt	r2, :upper16:.L__unnamed_21
	movs	r1, #33
	bl	_ZN4core9panicking5panic17h9d087799dbe178ebE
	.inst.n	0xdefe
.Ltmp185:
.LBB33_3:
	.loc	1 0 31 is_stmt 0
	lsl.w	r0, r8, #2
	uxtb	r5, r0
	add.w	r8, sp, #4
.Ltmp186:
.LBB33_4:
	.loc	1 158 31
	uxtab	r2, r5, r1
	uxtb	r0, r2
	cmp	r0, r2
	bne	.LBB33_9
.Ltmp187:
	.loc	1 159 48 is_stmt 1
	cmp	r0, #176
	bhs	.LBB33_10
.Ltmp188:
	.loc	1 159 34 is_stmt 0
	uxtb	r1, r1
.Ltmp189:
	.loc	1 159 21
	cmp	r1, #16
	bhs	.LBB33_11
.Ltmp190:
	ldrb	r2, [r6, r1]
	.loc	1 159 48
	add	r0, r4
.Ltmp191:
	ldrb	r0, [r0, #8]
	.loc	1 159 21
	eors	r0, r2
	strb	r0, [r6, r1]
.Ltmp192:
	.loc	1 156 24 is_stmt 1
	mov	r0, r8
	bl	_ZN4core4iter5range101_$LT$impl$u20$core..iter..traits..iterator..Iterator$u20$for$u20$core..ops..range..Range$LT$A$GT$$GT$4next17hcabbf5f88e3653c1E
	lsls	r0, r0, #31
	bne	.LBB33_4
.Ltmp193:
.LBB33_8:
	.loc	1 161 12
	add	sp, #8
	pop.w	{r8, r9, r11}
	pop	{r4, r5, r6, r7, pc}
.Ltmp194:
.LBB33_9:
	.loc	1 158 31
	movw	r0, :lower16:str.1
	movt	r0, :upper16:str.1
	movw	r2, :lower16:.L__unnamed_21
	movt	r2, :upper16:.L__unnamed_21
	movs	r1, #28
.Ltmp195:
	bl	_ZN4core9panicking5panic17h9d087799dbe178ebE
	.inst.n	0xdefe
.Ltmp196:
.LBB33_10:
	.loc	1 159 48
	movw	r2, :lower16:.L__unnamed_22
	movt	r2, :upper16:.L__unnamed_22
	movs	r1, #176
.Ltmp197:
	bl	_ZN4core9panicking18panic_bounds_check17h80646fc287624916E
.Ltmp198:
	.inst.n	0xdefe
.Ltmp199:
.LBB33_11:
	.loc	1 159 21 is_stmt 0
	movw	r2, :lower16:.L__unnamed_23
	movt	r2, :upper16:.L__unnamed_23
	mov	r0, r1
.Ltmp200:
	movs	r1, #16
	bl	_ZN4core9panicking18panic_bounds_check17h80646fc287624916E
	.inst.n	0xdefe
.Ltmp201:
.Lfunc_end33:
	.size	_ZN16psoc6_helloworld18aes_using_1d_array3AES13add_round_key17h260249fcde2671f7E, .Lfunc_end33-_ZN16psoc6_helloworld18aes_using_1d_array3AES13add_round_key17h260249fcde2671f7E
	.cfi_endproc
	.cantunwind
	.fnend

	.section	.text._ZN16psoc6_helloworld18aes_using_1d_array3AES9sub_bytes17h1d20ec394156158bE,"ax",%progbits
	.p2align	1
	.type	_ZN16psoc6_helloworld18aes_using_1d_array3AES9sub_bytes17h1d20ec394156158bE,%function
	.code	16
	.thumb_func
_ZN16psoc6_helloworld18aes_using_1d_array3AES9sub_bytes17h1d20ec394156158bE:
.Lfunc_begin34:
	.loc	1 163 0 is_stmt 1
	.fnstart
	.cfi_startproc
	.save	{r4, r5, r6, r7, lr}
	push	{r4, r5, r6, r7, lr}
	.cfi_def_cfa_offset 20
	.cfi_offset lr, -4
	.cfi_offset r7, -8
	.cfi_offset r6, -12
	.cfi_offset r5, -16
	.cfi_offset r4, -20
	.setfp	r7, sp, #12
	add	r7, sp, #12
	.cfi_def_cfa r7, 8
	.save	{r11}
	str	r11, [sp, #-4]!
	.cfi_offset r11, -24
	.pad	#8
	sub	sp, #8
	movs	r1, #16
.Ltmp202:
	.loc	1 165 26 prologue_end
	str	r1, [sp, #4]
	movs	r1, #0
	str	r1, [sp]
	ldr	r6, [r0]
	mov	r0, sp
.Ltmp203:
	.loc	1 165 26 is_stmt 0
	bl	_ZN4core4iter5range101_$LT$impl$u20$core..iter..traits..iterator..Iterator$u20$for$u20$core..ops..range..Range$LT$A$GT$$GT$4next17hcbb06759ad56c6b1E
	cbz	r0, .LBB34_4
.Ltmp204:
	.loc	1 0 26
	mov	r4, r1
	mov	r5, sp
.Ltmp205:
.LBB34_2:
	.loc	1 167 54 is_stmt 1
	cmp	r4, #15
	bhi	.LBB34_5
.Ltmp206:
	.loc	1 167 39 is_stmt 0
	ldrb	r0, [r6, r4]
	bl	_ZN16psoc6_helloworld18aes_using_1d_array14get_sbox_value17h4a52c89ebeeaba73E
	.loc	1 167 21
	strb	r0, [r6, r4]
.Ltmp207:
	.loc	1 165 26 is_stmt 1
	mov	r0, r5
	bl	_ZN4core4iter5range101_$LT$impl$u20$core..iter..traits..iterator..Iterator$u20$for$u20$core..ops..range..Range$LT$A$GT$$GT$4next17hcbb06759ad56c6b1E
	mov	r4, r1
.Ltmp208:
	cmp	r0, #0
	bne	.LBB34_2
.Ltmp209:
.LBB34_4:
	.loc	1 170 14
	add	sp, #8
	ldr	r11, [sp], #4
	pop	{r4, r5, r6, r7, pc}
.Ltmp210:
.LBB34_5:
	.loc	1 167 54
	movw	r2, :lower16:.L__unnamed_24
	movt	r2, :upper16:.L__unnamed_24
	mov	r0, r4
	movs	r1, #16
	bl	_ZN4core9panicking18panic_bounds_check17h80646fc287624916E
	.inst.n	0xdefe
.Ltmp211:
.Lfunc_end34:
	.size	_ZN16psoc6_helloworld18aes_using_1d_array3AES9sub_bytes17h1d20ec394156158bE, .Lfunc_end34-_ZN16psoc6_helloworld18aes_using_1d_array3AES9sub_bytes17h1d20ec394156158bE
	.cfi_endproc
	.cantunwind
	.fnend

	.section	.text._ZN16psoc6_helloworld18aes_using_1d_array3AES10shift_rows17h655687efdc93a617E,"ax",%progbits
	.p2align	1
	.type	_ZN16psoc6_helloworld18aes_using_1d_array3AES10shift_rows17h655687efdc93a617E,%function
	.code	16
	.thumb_func
_ZN16psoc6_helloworld18aes_using_1d_array3AES10shift_rows17h655687efdc93a617E:
.Lfunc_begin35:
	.loc	1 172 0
	.fnstart
	.cfi_startproc
	.save	{r7, lr}
	push	{r7, lr}
	.cfi_def_cfa_offset 8
	.cfi_offset lr, -4
	.cfi_offset r7, -8
	.setfp	r7, sp
	mov	r7, sp
	.cfi_def_cfa_register r7
.Ltmp212:
	.loc	1 184 24 prologue_end
	ldr	r0, [r0]
.Ltmp213:
	.loc	1 187 24
	ldrb	r1, [r0, #13]
.Ltmp214:
	.loc	1 184 24
	ldrb	r2, [r0, #1]
.Ltmp215:
	.loc	1 194 24
	ldrb.w	lr, [r0, #2]
.Ltmp216:
	.loc	1 206 24
	ldrb.w	r12, [r0, #3]
.Ltmp217:
	.loc	1 185 24
	ldrb	r3, [r0, #5]
.Ltmp218:
	.loc	1 191 13
	strb	r2, [r0, #13]
.Ltmp219:
	.loc	1 186 24
	ldrb	r2, [r0, #9]
.Ltmp220:
	.loc	1 190 13
	strb	r1, [r0, #9]
	.loc	1 189 13
	strb	r2, [r0, #5]
	.loc	1 188 13
	strb	r3, [r0, #1]
.Ltmp221:
	.loc	1 196 24
	ldrb	r1, [r0, #10]
.Ltmp222:
	.loc	1 199 13
	strb	r1, [r0, #2]
.Ltmp223:
	.loc	1 195 24
	ldrb	r1, [r0, #6]
.Ltmp224:
	.loc	1 197 24
	ldrb	r2, [r0, #14]
.Ltmp225:
	.loc	1 200 13
	strb	r2, [r0, #6]
	.loc	1 201 13
	strb.w	lr, [r0, #10]
	.loc	1 202 13
	strb	r1, [r0, #14]
.Ltmp226:
	.loc	1 209 24
	ldrb	r1, [r0, #15]
.Ltmp227:
	.loc	1 211 13
	strb	r1, [r0, #3]
.Ltmp228:
	.loc	1 207 24
	ldrb	r1, [r0, #7]
.Ltmp229:
	.loc	1 208 24
	ldrb	r2, [r0, #11]
.Ltmp230:
	.loc	1 214 13
	strb	r2, [r0, #15]
	.loc	1 213 13
	strb	r1, [r0, #11]
	.loc	1 212 13
	strb.w	r12, [r0, #7]
.Ltmp231:
	.loc	1 215 14
	pop	{r7, pc}
.Ltmp232:
.Lfunc_end35:
	.size	_ZN16psoc6_helloworld18aes_using_1d_array3AES10shift_rows17h655687efdc93a617E, .Lfunc_end35-_ZN16psoc6_helloworld18aes_using_1d_array3AES10shift_rows17h655687efdc93a617E
	.cfi_endproc
	.cantunwind
	.fnend

	.section	.text._ZN16psoc6_helloworld18aes_using_1d_array3AES5xtime17h75af3aa34aa6b75fE,"ax",%progbits
	.p2align	1
	.type	_ZN16psoc6_helloworld18aes_using_1d_array3AES5xtime17h75af3aa34aa6b75fE,%function
	.code	16
	.thumb_func
_ZN16psoc6_helloworld18aes_using_1d_array3AES5xtime17h75af3aa34aa6b75fE:
.Lfunc_begin36:
	.loc	1 217 0
	.fnstart
	.cfi_startproc
	sxtb	r1, r0
	movs	r2, #27
.Ltmp233:
	.loc	1 219 29 prologue_end
	and.w	r1, r2, r1, lsr #7
	.loc	1 219 20 is_stmt 0
	eor.w	r0, r1, r0, lsl #1
.Ltmp234:
	.loc	1 220 14 is_stmt 1
	bx	lr
.Ltmp235:
.Lfunc_end36:
	.size	_ZN16psoc6_helloworld18aes_using_1d_array3AES5xtime17h75af3aa34aa6b75fE, .Lfunc_end36-_ZN16psoc6_helloworld18aes_using_1d_array3AES5xtime17h75af3aa34aa6b75fE
	.cfi_endproc
	.cantunwind
	.fnend

	.section	.text._ZN16psoc6_helloworld18aes_using_1d_array3AES11mix_columns17hae674e2398e04980E,"ax",%progbits
	.p2align	1
	.type	_ZN16psoc6_helloworld18aes_using_1d_array3AES11mix_columns17hae674e2398e04980E,%function
	.code	16
	.thumb_func
_ZN16psoc6_helloworld18aes_using_1d_array3AES11mix_columns17hae674e2398e04980E:
.Lfunc_begin37:
	.loc	1 221 0
	.fnstart
	.cfi_startproc
	.save	{r4, r5, r6, r7, lr}
	push	{r4, r5, r6, r7, lr}
	.cfi_def_cfa_offset 20
	.cfi_offset lr, -4
	.cfi_offset r7, -8
	.cfi_offset r6, -12
	.cfi_offset r5, -16
	.cfi_offset r4, -20
	.setfp	r7, sp, #12
	add	r7, sp, #12
	.cfi_def_cfa r7, 8
	.save	{r8, r9, r10, r11}
	push.w	{r8, r9, r10, r11}
	.cfi_offset r11, -24
	.cfi_offset r10, -28
	.cfi_offset r9, -32
	.cfi_offset r8, -36
	.pad	#4
	sub	sp, #4
	ldr	r0, [r0]
.Ltmp236:
	str	r0, [sp]
	movs	r5, #0
.Ltmp237:
.LBB37_1:
	ldr	r4, [sp]
.Ltmp238:
	.loc	1 230 23 prologue_end
	ldrb.w	r9, [r4, r5]
.Ltmp239:
	adds	r6, r4, r5
	.loc	1 231 41
	ldrb	r0, [r6, #1]
	.loc	1 231 61 is_stmt 0
	ldrb	r1, [r6, #2]
	.loc	1 231 81
	ldrb	r2, [r6, #3]
	.loc	1 231 23
	eor.w	r0, r0, r9
	eors	r1, r0
	.loc	1 231 17
	eor.w	r10, r1, r2
.Ltmp240:
	.loc	1 233 22 is_stmt 1
	bl	_ZN16psoc6_helloworld18aes_using_1d_array3AES5xtime17h75af3aa34aa6b75fE
.Ltmp241:
	.loc	1 234 36
	eor.w	r1, r10, r9
	.loc	1 234 17 is_stmt 0
	eors	r0, r1
.Ltmp242:
	strb	r0, [r4, r5]
	.loc	1 235 23 is_stmt 1
	ldrb	r0, [r6, #1]
	.loc	1 235 43 is_stmt 0
	ldrb.w	r8, [r6, #2]
	.loc	1 237 38 is_stmt 1
	eor.w	r11, r0, r10
	.loc	1 235 17
	eor.w	r0, r0, r8
.Ltmp243:
	.loc	1 236 22
	bl	_ZN16psoc6_helloworld18aes_using_1d_array3AES5xtime17h75af3aa34aa6b75fE
.Ltmp244:
	.loc	1 237 17
	eor.w	r0, r0, r11
.Ltmp245:
	strb	r0, [r6, #1]
	.loc	1 238 43
	ldrb	r4, [r6, #3]
	.loc	1 238 17 is_stmt 0
	eor.w	r0, r4, r8
.Ltmp246:
	.loc	1 239 22 is_stmt 1
	bl	_ZN16psoc6_helloworld18aes_using_1d_array3AES5xtime17h75af3aa34aa6b75fE
.Ltmp247:
	.loc	1 240 38
	eor.w	r1, r8, r10
	.loc	1 240 17 is_stmt 0
	eors	r0, r1
.Ltmp248:
	strb	r0, [r6, #2]
	.loc	1 241 17 is_stmt 1
	eor.w	r0, r4, r9
.Ltmp249:
	.loc	1 242 22
	bl	_ZN16psoc6_helloworld18aes_using_1d_array3AES5xtime17h75af3aa34aa6b75fE
.Ltmp250:
	.loc	1 243 38
	eor.w	r1, r4, r10
	.loc	1 243 17 is_stmt 0
	eors	r0, r1
.Ltmp251:
	strb	r0, [r6, #3]
	adds	r0, r5, #4
.Ltmp252:
	.loc	1 228 20 is_stmt 1
	cmp	r5, #12
	mov	r5, r0
.Ltmp253:
	blo	.LBB37_1
.Ltmp254:
	.loc	1 247 14
	add	sp, #4
	pop.w	{r8, r9, r10, r11}
	pop	{r4, r5, r6, r7, pc}
.Ltmp255:
.Lfunc_end37:
	.size	_ZN16psoc6_helloworld18aes_using_1d_array3AES11mix_columns17hae674e2398e04980E, .Lfunc_end37-_ZN16psoc6_helloworld18aes_using_1d_array3AES11mix_columns17hae674e2398e04980E
	.cfi_endproc
	.cantunwind
	.fnend

	.section	.text._ZN16psoc6_helloworld18aes_using_1d_array3AES10gen_cipher17h1a7c8873908aaa05E,"ax",%progbits
	.p2align	1
	.type	_ZN16psoc6_helloworld18aes_using_1d_array3AES10gen_cipher17h1a7c8873908aaa05E,%function
	.code	16
	.thumb_func
_ZN16psoc6_helloworld18aes_using_1d_array3AES10gen_cipher17h1a7c8873908aaa05E:
.Lfunc_begin38:
	.loc	1 248 0
	.fnstart
	.cfi_startproc
	.save	{r4, r5, r6, r7, lr}
	push	{r4, r5, r6, r7, lr}
	.cfi_def_cfa_offset 20
	.cfi_offset lr, -4
	.cfi_offset r7, -8
	.cfi_offset r6, -12
	.cfi_offset r5, -16
	.cfi_offset r4, -20
	.setfp	r7, sp, #12
	add	r7, sp, #12
	.cfi_def_cfa r7, 8
	.save	{r11}
	str	r11, [sp, #-4]!
	.cfi_offset r11, -24
	.pad	#8
	sub	sp, #8
	mov	r4, r0
.Ltmp256:
	.loc	1 251 13 prologue_end
	movs	r1, #0
	bl	_ZN16psoc6_helloworld18aes_using_1d_array3AES13add_round_key17h260249fcde2671f7E
	.loc	1 253 29
	movs	r0, #1
	movs	r1, #10
	bl	_ZN63_$LT$I$u20$as$u20$core..iter..traits..collect..IntoIterator$GT$9into_iter17h68f643edbae10ba2E
	strb.w	r1, [sp, #5]
	strb.w	r0, [sp, #4]
	add	r0, sp, #4
.Ltmp257:
	.loc	1 253 29 is_stmt 0
	bl	_ZN4core4iter5range101_$LT$impl$u20$core..iter..traits..iterator..Iterator$u20$for$u20$core..ops..range..Range$LT$A$GT$$GT$4next17hcabbf5f88e3653c1E
	lsls	r0, r0, #31
	beq	.LBB38_3
.Ltmp258:
	.loc	1 0 29
	mov	r6, r1
	add	r5, sp, #4
.Ltmp259:
.LBB38_2:
	.loc	1 255 17 is_stmt 1
	mov	r0, r4
	bl	_ZN16psoc6_helloworld18aes_using_1d_array3AES9sub_bytes17h1d20ec394156158bE
	.loc	1 257 17
	mov	r0, r4
	bl	_ZN16psoc6_helloworld18aes_using_1d_array3AES10shift_rows17h655687efdc93a617E
	.loc	1 258 17
	mov	r0, r4
	bl	_ZN16psoc6_helloworld18aes_using_1d_array3AES11mix_columns17hae674e2398e04980E
	.loc	1 259 17
	mov	r0, r4
	mov	r1, r6
	bl	_ZN16psoc6_helloworld18aes_using_1d_array3AES13add_round_key17h260249fcde2671f7E
.Ltmp260:
	.loc	1 253 29
	mov	r0, r5
	bl	_ZN4core4iter5range101_$LT$impl$u20$core..iter..traits..iterator..Iterator$u20$for$u20$core..ops..range..Range$LT$A$GT$$GT$4next17hcabbf5f88e3653c1E
	mov	r6, r1
	lsls	r0, r0, #31
	bne	.LBB38_2
.Ltmp261:
.LBB38_3:
	.loc	1 262 13
	mov	r0, r4
	bl	_ZN16psoc6_helloworld18aes_using_1d_array3AES9sub_bytes17h1d20ec394156158bE
	.loc	1 263 13
	mov	r0, r4
	bl	_ZN16psoc6_helloworld18aes_using_1d_array3AES10shift_rows17h655687efdc93a617E
	.loc	1 264 13
	mov	r0, r4
	movs	r1, #10
	bl	_ZN16psoc6_helloworld18aes_using_1d_array3AES13add_round_key17h260249fcde2671f7E
	.loc	1 266 10
	add	sp, #8
	ldr	r11, [sp], #4
	pop	{r4, r5, r6, r7, pc}
.Ltmp262:
.Lfunc_end38:
	.size	_ZN16psoc6_helloworld18aes_using_1d_array3AES10gen_cipher17h1a7c8873908aaa05E, .Lfunc_end38-_ZN16psoc6_helloworld18aes_using_1d_array3AES10gen_cipher17h1a7c8873908aaa05E
	.cfi_endproc
	.cantunwind
	.fnend

	.section	.text._ZN16psoc6_helloworld18aes_using_1d_array3AES18AES128_ECB_encrypt17h92fa4e8ab697e97eE,"ax",%progbits
	.p2align	1
	.type	_ZN16psoc6_helloworld18aes_using_1d_array3AES18AES128_ECB_encrypt17h92fa4e8ab697e97eE,%function
	.code	16
	.thumb_func
_ZN16psoc6_helloworld18aes_using_1d_array3AES18AES128_ECB_encrypt17h92fa4e8ab697e97eE:
.Lfunc_begin39:
	.loc	1 378 0
	.fnstart
	.cfi_startproc
	.save	{r4, r6, r7, lr}
	push	{r4, r6, r7, lr}
	.cfi_def_cfa_offset 16
	.cfi_offset lr, -4
	.cfi_offset r7, -8
	.cfi_offset r6, -12
	.cfi_offset r4, -16
	.setfp	r7, sp, #8
	add	r7, sp, #8
	.cfi_def_cfa r7, 8
	mov	r4, r0
.Ltmp263:
	.loc	1 380 9 prologue_end
	bl	_ZN16psoc6_helloworld18aes_using_1d_array3AES13key_expansion17hb3d707a7f2d145e3E
	.loc	1 381 9
	mov	r0, r4
	bl	_ZN16psoc6_helloworld18aes_using_1d_array3AES10gen_cipher17h1a7c8873908aaa05E
	.loc	1 384 10
	pop	{r4, r6, r7, pc}
.Ltmp264:
.Lfunc_end39:
	.size	_ZN16psoc6_helloworld18aes_using_1d_array3AES18AES128_ECB_encrypt17h92fa4e8ab697e97eE, .Lfunc_end39-_ZN16psoc6_helloworld18aes_using_1d_array3AES18AES128_ECB_encrypt17h92fa4e8ab697e97eE
	.cfi_endproc
	.cantunwind
	.fnend

	.section	.text._ZN16psoc6_helloworld18aes_using_1d_array8test_aes17hfdafd4eaf1a4feb2E,"ax",%progbits
	.p2align	1
	.type	_ZN16psoc6_helloworld18aes_using_1d_array8test_aes17hfdafd4eaf1a4feb2E,%function
	.code	16
	.thumb_func
_ZN16psoc6_helloworld18aes_using_1d_array8test_aes17hfdafd4eaf1a4feb2E:
.Lfunc_begin40:
	.loc	1 388 0
	.fnstart
	.cfi_startproc
	.save	{r4, r5, r6, r7, lr}
	push	{r4, r5, r6, r7, lr}
	.cfi_def_cfa_offset 20
	.cfi_offset lr, -4
	.cfi_offset r7, -8
	.cfi_offset r6, -12
	.cfi_offset r5, -16
	.cfi_offset r4, -20
	.setfp	r7, sp, #12
	add	r7, sp, #12
	.cfi_def_cfa r7, 8
	.save	{r8}
	str	r8, [sp, #-4]!
	.cfi_offset r8, -24
	.pad	#256
	sub	sp, #256
	movw	r0, #53001
	movt	r0, #15439
.Ltmp265:
	.loc	1 391 23 prologue_end
	str	r0, [sp, #12]
	movw	r0, #63403
	movt	r0, #34837
	str	r0, [sp, #8]
	movw	r0, #44584
	movt	r0, #42706
	str	r0, [sp, #4]
	movw	r0, #32299
	movt	r0, #5653
	str	r0, [sp]
	movw	r0, #44869
	movt	r0, #20878
.Ltmp266:
	.loc	1 392 24
	str	r0, [sp, #28]
	movw	r0, #47006
	movt	r0, #44143
	str	r0, [sp, #24]
	movw	r0, #798
	movt	r0, #40108
	str	r0, [sp, #20]
	movw	r0, #11694
	movt	r0, #22410
	str	r0, [sp, #16]
.Ltmp267:
	.loc	1 0 24 is_stmt 0
	movs	r5, #0
.Ltmp268:
	.loc	1 394 31 is_stmt 1
	strd	r5, r5, [sp, #40]
	strd	r5, r5, [sp, #32]
	add	r4, sp, #32
	add.w	r8, sp, #16
.Ltmp269:
	.loc	1 397 5
	mov	r0, r4
	mov	r1, r8
	bl	_ZN4core5slice29_$LT$impl$u20$$u5b$T$u5d$$GT$15copy_from_slice17h62fbe66ed1453669E
	add	r6, sp, #48
	.loc	1 398 22
	add.w	r0, r6, #8
	.loc	1 399 38
	movs	r1, #176
	bl	__aeabi_memclr4
	mov	r0, sp
	.loc	1 398 22
	strd	r4, r0, [sp, #48]
.Ltmp270:
	.loc	1 403 5
	mov	r0, r6
	bl	_ZN16psoc6_helloworld18aes_using_1d_array3AES18AES128_ECB_encrypt17h92fa4e8ab697e97eE
.Ltmp271:
	.loc	1 404 5
	mov	r0, r4
	mov	r1, r8
	bl	_ZN4core5array8equality103_$LT$impl$u20$core..cmp..PartialEq$LT$$u5b$B$u3b$$u20$N$u5d$$GT$$u20$for$u20$$u5b$A$u3b$$u20$N$u5d$$GT$2eq17hc7586892cf584a96E
	cmp	r0, #0
.Ltmp272:
	.loc	1 406 2
	ittt	ne
	addne	sp, #256
.Ltmp273:
	ldrne	r8, [sp], #4
	popne	{r4, r5, r6, r7, pc}
.Ltmp274:
.LBB40_1:
	.loc	1 404 5
	strd	r5, r5, [sp, #248]
	strd	r5, r5, [sp, #240]
	strd	r5, r5, [sp, #232]
	add	r0, sp, #32
	add	r1, sp, #16
	add	r2, sp, #232
	bl	_ZN4core9panicking13assert_failed17h2ada0f01fe89275cE
	.inst.n	0xdefe
.Ltmp275:
.Lfunc_end40:
	.size	_ZN16psoc6_helloworld18aes_using_1d_array8test_aes17hfdafd4eaf1a4feb2E, .Lfunc_end40-_ZN16psoc6_helloworld18aes_using_1d_array8test_aes17hfdafd4eaf1a4feb2E
	.cfi_endproc
	.cantunwind
	.fnend

	.section	.text.main,"ax",%progbits
	.globl	main
	.p2align	1
	.type	main,%function
	.code	16
	.thumb_func
main:
.Lfunc_begin41:
	.loc	2 80 0
	.fnstart
	.cfi_startproc
	.save	{r7, lr}
	push	{r7, lr}
	.cfi_def_cfa_offset 8
	.cfi_offset lr, -4
	.cfi_offset r7, -8
	.setfp	r7, sp
	mov	r7, sp
	.cfi_def_cfa_register r7
.Ltmp276:
	.loc	2 80 1 prologue_end
	bl	_ZN16psoc6_helloworld18__cortex_m_rt_main17h242fc4e94d5a7cb6E
	.inst.n	0xdefe
.Ltmp277:
.Lfunc_end41:
	.size	main, .Lfunc_end41-main
	.cfi_endproc
	.cantunwind
	.fnend

	.section	.text._ZN16psoc6_helloworld18__cortex_m_rt_main17h242fc4e94d5a7cb6E,"ax",%progbits
	.p2align	1
	.type	_ZN16psoc6_helloworld18__cortex_m_rt_main17h242fc4e94d5a7cb6E,%function
	.code	16
	.thumb_func
_ZN16psoc6_helloworld18__cortex_m_rt_main17h242fc4e94d5a7cb6E:
.Lfunc_begin42:
	.loc	2 81 0
	.fnstart
	.cfi_startproc
	.save	{r7, lr}
	push	{r7, lr}
	.cfi_def_cfa_offset 8
	.cfi_offset lr, -4
	.cfi_offset r7, -8
	.setfp	r7, sp
	mov	r7, sp
	.cfi_def_cfa_register r7
.Ltmp278:
	.loc	2 117 1 prologue_end
	bl	_ZN16psoc6_helloworld18aes_using_1d_array8test_aes17hfdafd4eaf1a4feb2E
.LBB42_1:
	.loc	2 126 1
	b	.LBB42_1
.Ltmp279:
.Lfunc_end42:
	.size	_ZN16psoc6_helloworld18__cortex_m_rt_main17h242fc4e94d5a7cb6E, .Lfunc_end42-_ZN16psoc6_helloworld18__cortex_m_rt_main17h242fc4e94d5a7cb6E
	.cfi_endproc
	.cantunwind
	.fnend

	.type	.L__unnamed_1,%object
	.section	.rodata..L__unnamed_1,"a",%progbits
	.p2align	2
.L__unnamed_1:
	.long	_ZN4core3ptr49drop_in_place$LT$$RF$$u5b$u8$u3b$$u20$16$u5d$$GT$17h6cc075015c357d26E
	.asciz	"\004\000\000\000\004\000\000"
	.long	_ZN42_$LT$$RF$T$u20$as$u20$core..fmt..Debug$GT$3fmt17h727afcaae8af8915E
	.size	.L__unnamed_1, 16

	.type	_ZN16psoc6_helloworld18aes_using_1d_array4sbox17h0222d62579877ce2E,%object
	.section	.rodata._ZN16psoc6_helloworld18aes_using_1d_array4sbox17h0222d62579877ce2E,"a",%progbits
_ZN16psoc6_helloworld18aes_using_1d_array4sbox17h0222d62579877ce2E:
	.ascii	"c|w{\362ko\3050\001g+\376\327\253v\312\202\311}\372YG\360\255\324\242\257\234\244r\300\267\375\223&6?\367\3144\245\345\361q\3301\025\004\307#\303\030\226\005\232\007\022\200\342\353'\262u\t\203,\032\033nZ\240R;\326\263)\343/\204S\321\000\355 \374\261[j\313\2769JLX\317\320\357\252\373CM3\205E\371\002\177P<\237\250Q\243@\217\222\2358\365\274\266\332!\020\377\363\322\315\f\023\354_\227D\027\304\247~=d]\031s`\201O\334\"*\220\210F\356\270\024\336^\013\333\3402:\nI\006$\\\302\323\254b\221\225\344y\347\3107m\215\325N\251lV\364\352ez\256\b\272x%.\034\246\264\306\350\335t\037K\275\213\212p>\265fH\003\366\016a5W\271\206\301\035\236\341\370\230\021i\331\216\224\233\036\207\351\316U(\337\214\241\211\r\277\346BhA\231-\017\260T\273\026"
	.size	_ZN16psoc6_helloworld18aes_using_1d_array4sbox17h0222d62579877ce2E, 256

	.type	_ZN16psoc6_helloworld18aes_using_1d_array4Rcon17hd315d3ea6fb0175cE,%object
	.section	.rodata._ZN16psoc6_helloworld18aes_using_1d_array4Rcon17hd315d3ea6fb0175cE,"a",%progbits
_ZN16psoc6_helloworld18aes_using_1d_array4Rcon17hd315d3ea6fb0175cE:
	.ascii	"\215\001\002\004\b\020 @\200\0336l\330\253M\232/^\274c\306\2275j\324\263}\372\357\305\2219r\344\323\275a\302\237%J\2243f\314\203\035:t\350\313\215\001\002\004\b\020 @\200\0336l\330\253M\232/^\274c\306\2275j\324\263}\372\357\305\2219r\344\323\275a\302\237%J\2243f\314\203\035:t\350\313\215\001\002\004\b\020 @\200\0336l\330\253M\232/^\274c\306\2275j\324\263}\372\357\305\2219r\344\323\275a\302\237%J\2243f\314\203\035:t\350\313\215\001\002\004\b\020 @\200\0336l\330\253M\232/^\274c\306\2275j\324\263}\372\357\305\2219r\344\323\275a\302\237%J\2243f\314\203\035:t\350\313\215\001\002\004\b\020 @\200\0336l\330\253M\232/^\274c\306\2275j\324\263}\372\357\305\2219r\344\323\275a\302\237%J\2243f\314\203\035:t\350\313"
	.size	_ZN16psoc6_helloworld18aes_using_1d_array4Rcon17hd315d3ea6fb0175cE, 255

	.type	.L__unnamed_25,%object
	.section	.rodata..L__unnamed_25,"a",%progbits
.L__unnamed_25:
	.ascii	"src\\aes_using_1d_array.rs"
	.size	.L__unnamed_25, 25

	.type	.L__unnamed_6,%object
	.section	.rodata..L__unnamed_6,"a",%progbits
	.p2align	2
.L__unnamed_6:
	.long	.L__unnamed_25
	.asciz	"\031\000\000\000^\000\000\000?\000\000"
	.size	.L__unnamed_6, 16

	.type	str.0,%object
	.section	.rodata.str.0,"a",%progbits
	.p2align	4
str.0:
	.ascii	"attempt to multiply with overflow"
	.size	str.0, 33

	.type	str.1,%object
	.section	.rodata.str.1,"a",%progbits
	.p2align	4
str.1:
	.ascii	"attempt to add with overflow"
	.size	str.1, 28

	.type	.L__unnamed_7,%object
	.section	.rodata..L__unnamed_7,"a",%progbits
	.p2align	2
.L__unnamed_7:
	.long	.L__unnamed_25
	.asciz	"\031\000\000\000^\000\000\0005\000\000"
	.size	.L__unnamed_7, 16

	.type	.L__unnamed_8,%object
	.section	.rodata..L__unnamed_8,"a",%progbits
	.p2align	2
.L__unnamed_8:
	.long	.L__unnamed_25
	.asciz	"\031\000\000\000_\000\000\0005\000\000"
	.size	.L__unnamed_8, 16

	.type	.L__unnamed_9,%object
	.section	.rodata..L__unnamed_9,"a",%progbits
	.p2align	2
.L__unnamed_9:
	.long	.L__unnamed_25
	.asciz	"\031\000\000\000`\000\000\0005\000\000"
	.size	.L__unnamed_9, 16

	.type	.L__unnamed_10,%object
	.section	.rodata..L__unnamed_10,"a",%progbits
	.p2align	2
.L__unnamed_10:
	.long	.L__unnamed_25
	.asciz	"\031\000\000\000a\000\000\0005\000\000"
	.size	.L__unnamed_10, 16

	.type	.L__unnamed_3,%object
	.section	.rodata..L__unnamed_3,"a",%progbits
	.p2align	2
.L__unnamed_3:
	.long	.L__unnamed_25
	.asciz	"\031\000\000\000i\000\000\000\034\000\000"
	.size	.L__unnamed_3, 16

	.type	str.2,%object
	.section	.rodata.str.2,"a",%progbits
	.p2align	4
str.2:
	.ascii	"attempt to subtract with overflow"
	.size	str.2, 33

	.type	.L__unnamed_4,%object
	.section	.rodata..L__unnamed_4,"a",%progbits
	.p2align	2
.L__unnamed_4:
	.long	.L__unnamed_25
	.asciz	"\031\000\000\000j\000\000\000!\000\000"
	.size	.L__unnamed_4, 16

	.type	.L__unnamed_5,%object
	.section	.rodata..L__unnamed_5,"a",%progbits
	.p2align	2
.L__unnamed_5:
	.long	.L__unnamed_25
	.asciz	"\031\000\000\000j\000\000\000\017\000\000"
	.size	.L__unnamed_5, 16

	.type	.L__unnamed_11,%object
	.section	.rodata..L__unnamed_11,"a",%progbits
	.p2align	2
.L__unnamed_11:
	.long	.L__unnamed_25
	.asciz	"\031\000\000\000\221\000\000\000B\000\000"
	.size	.L__unnamed_11, 16

	.type	.L__unnamed_12,%object
	.section	.rodata..L__unnamed_12,"a",%progbits
	.p2align	2
.L__unnamed_12:
	.long	.L__unnamed_25
	.asciz	"\031\000\000\000\221\000\000\0003\000\000"
	.size	.L__unnamed_12, 16

	.type	.L__unnamed_13,%object
	.section	.rodata..L__unnamed_13,"a",%progbits
	.p2align	2
.L__unnamed_13:
	.long	.L__unnamed_25
	.asciz	"\031\000\000\000\221\000\000\000\034\000\000"
	.size	.L__unnamed_13, 16

	.type	.L__unnamed_14,%object
	.section	.rodata..L__unnamed_14,"a",%progbits
	.p2align	2
.L__unnamed_14:
	.long	.L__unnamed_25
	.asciz	"\031\000\000\000\221\000\000\000\r\000\000"
	.size	.L__unnamed_14, 16

	.type	.L__unnamed_15,%object
	.section	.rodata..L__unnamed_15,"a",%progbits
	.p2align	2
.L__unnamed_15:
	.long	.L__unnamed_25
	.asciz	"\031\000\000\000\222\000\000\0003\000\000"
	.size	.L__unnamed_15, 16

	.type	.L__unnamed_16,%object
	.section	.rodata..L__unnamed_16,"a",%progbits
	.p2align	2
.L__unnamed_16:
	.long	.L__unnamed_25
	.asciz	"\031\000\000\000\222\000\000\000\r\000\000"
	.size	.L__unnamed_16, 16

	.type	.L__unnamed_17,%object
	.section	.rodata..L__unnamed_17,"a",%progbits
	.p2align	2
.L__unnamed_17:
	.long	.L__unnamed_25
	.asciz	"\031\000\000\000\223\000\000\0003\000\000"
	.size	.L__unnamed_17, 16

	.type	.L__unnamed_18,%object
	.section	.rodata..L__unnamed_18,"a",%progbits
	.p2align	2
.L__unnamed_18:
	.long	.L__unnamed_25
	.asciz	"\031\000\000\000\223\000\000\000\r\000\000"
	.size	.L__unnamed_18, 16

	.type	.L__unnamed_19,%object
	.section	.rodata..L__unnamed_19,"a",%progbits
	.p2align	2
.L__unnamed_19:
	.long	.L__unnamed_25
	.asciz	"\031\000\000\000\224\000\000\0003\000\000"
	.size	.L__unnamed_19, 16

	.type	.L__unnamed_20,%object
	.section	.rodata..L__unnamed_20,"a",%progbits
	.p2align	2
.L__unnamed_20:
	.long	.L__unnamed_25
	.asciz	"\031\000\000\000\224\000\000\000\r\000\000"
	.size	.L__unnamed_20, 16

	.type	.L__unnamed_21,%object
	.section	.rodata..L__unnamed_21,"a",%progbits
	.p2align	2
.L__unnamed_21:
	.long	.L__unnamed_25
	.asciz	"\031\000\000\000\236\000\000\000\037\000\000"
	.size	.L__unnamed_21, 16

	.type	.L__unnamed_22,%object
	.section	.rodata..L__unnamed_22,"a",%progbits
	.p2align	2
.L__unnamed_22:
	.long	.L__unnamed_25
	.asciz	"\031\000\000\000\237\000\000\0000\000\000"
	.size	.L__unnamed_22, 16

	.type	.L__unnamed_23,%object
	.section	.rodata..L__unnamed_23,"a",%progbits
	.p2align	2
.L__unnamed_23:
	.long	.L__unnamed_25
	.asciz	"\031\000\000\000\237\000\000\000\025\000\000"
	.size	.L__unnamed_23, 16

	.type	.L__unnamed_24,%object
	.section	.rodata..L__unnamed_24,"a",%progbits
	.p2align	2
.L__unnamed_24:
	.long	.L__unnamed_25
	.asciz	"\031\000\000\000\247\000\000\0006\000\000"
	.size	.L__unnamed_24, 16

	.type	.L__unnamed_2,%object
	.section	.rodata..L__unnamed_2,"a",%progbits
	.p2align	2
.L__unnamed_2:
	.long	.L__unnamed_25
	.asciz	"\031\000\000\000\224\001\000\000\005\000\000"
	.size	.L__unnamed_2, 16

	.type	CM0_BOOT,%object
	.section	.cm0boot,"a",%progbits
	.globl	CM0_BOOT
CM0_BOOT:
	.asciz	"\000 \000\b\353\000\000\020\r\000\000\000M\001\000\020\000\000\000\000\000\000\000\000\000\000\000\000\000\000\000\000\000\000\000\000\000\000\000\000\000\000\000\000I\001\000\020\000\000\000\000\000\000\000\000I\001\000\020I\001\000\020I\001\000\020I\001\000\020I\001\000\020I\001\000\020I\001\000\020I\001\000\020I\001\000\020I\001\000\020I\001\000\020I\001\000\020I\001\000\020I\001\000\020I\001\000\020I\001\000\020I\001\000\020I\001\000\020\020\265\006L#x\000+\007\321\005K\000+\002\320\004H\000\340\000\277\001##p\020\275\260\003\000\b\000\000\000\000\024\025\000\020\004K\020\265\000+\003\320\003I\004H\000\340\000\277\020\275\300F\000\000\000\000\264\003\000\b\024\025\000\020\0020\200\b\003\320\0010\0028\374\321\300F\300FpG\357\363\020\200r\266pG\200\363\020\210pGpG\377\367\375\377r\266\017L\020M\254B\t\332!hbh\243h\004;\002\333\310X\320P\372\347\f4\363\347\nI\013J\000 R\032\002\335\004:\210P\374\334\bH\tI\b`\277\363O\217\000\360\377\376\000\360\257\376\376\347 \025\000\0208\025\000\020\260\003\000\b\310\005\000\b\000\000\000\b\b\355\000\340\376\347\376\347\000\265\004 qF\bB\002\320\357\363\t\200\001\340\357\363\b\200\0040\000\360\223\374\376\347\001K\030`pG\300F\304\005\000\b\004K\033h\032\000\2722\022\210\033jPC\300\030pG\300F\304\005\000\b\035K\230B\017\320\020\330@(/\320\005\330\000(0\320\020((\320\031H\036\340\200((\320\200#[\000\230B\367\321\024H\026\340\025K\230B\024\320\b\330\240#\033\006\230B\034\320\022K\230B\352\321\240 \013\340\020K\230B\n\320\020K\230B\t\320\017K\230B\337\321\017HpG\244 \300\003\373\347\rH\371\347\rH\367\347\rH\365\347\rH\363\347\rH\361\347\000 \357\347\006\000R\000\377\000R\000\001\000\000\360\t\000\000\240\004\000\000\360\005\000\000\360\003\000\000\360\001\000R\000\002\000R\000\003\000R\000\001\000P\000\002\000P\000\005\000R\000\020\265\000 \377\367\232\377\nK\034h#\000\2743\033h\300\030\003h\000+\n\333\007K\030h\377\367\231\377\001\"ch\232`\232h\000*\374\321\020\275\002H\374\347\304\005\000\b\314\003\000\b\002\000P\000\006K\033h\2743\033h\303\030\033h\000+\003\332\211\262A`\000 pG\001H\374\347\304\005\000\b\001\000\212\000\003h\000+\004\332\211\262\302`\201`\000 pG\000H\374\347\001\000\212\000\006K\033h\2743\033h\303\030\033h\000+\003\332\303h\000 \013`pG\001H\374\347\304\005\000\b\001\000\212\000\002K\032h\000*\000\321\030`pG\340\003\000\b\360\265,$`C\025L\037\000$h\035\n \030\377$%@'@\022L\033\f&h\007`4jE`\203`\27266\210wC?\031\007a/\000\2007m\001\177\001\347\031d\031\nMGa\037\004;Cd\031#`\000#\203a\005\233\302a\001b\000+\001\320\033\210\203\201\360\275\300F\340\003\000\b\304\005\000\b\b\020\000\000\360\265\203h\205\260\002\255+\200\025K\002h\033h\006j\033\217Gj\233\030k\200Ch\000\225\202j\301j\004\000\003\223\003i\300h\377\367\265\377\000!;\000\n\000\000\2210\000\377\367\256\377!k(\000\000\3600\373\000\"\253^\000+\006\333\037\"\023@\036:\232@\023\000\003J\023`\005\260\360\275\300F\304\005\000\b\000\341\000\340\367\265,%\023LhC&hiC4\030%i\001\223q\030\000-\031\320\210i\000(\030\321.h\000.\025\332gh\001$&\000Kh\236@\264F\023h\236\262cF\033\004\036C\026`\352`\214a\274@\001\233\244\262Kb\254`\376\275\002H\374\347\002H\372\347\340\003\000\b\004\002\212\000\007\002\212\000s\265\000&Bi\004\000\325h\001\226+\f\263B!\320\033\004\023`\023h\031K\000i\033h\2743\033h\303\030\033h\263B\025\332\001\251\377\3676\377\260B\f\321\001\230\342i\003h\036\f\333\262\232B\005\331\"j\233\000\233X\000+\000\320\230G1\000 i\377\367\005\377\255\262\000-\t\320ci\035`\000%\033hcj\253B\005\320\230Geb\245aci\033hs\275\243j\000+\370\320\230G\366\347\304\005\000\b,#\020\265CC\003J\020h\300\030\377\367\266\377\020\275\300F\340\003\000\b\370\265\031K\017\000\033h\032\00032\022x\202B'\331\000)%\320\037%\nh\025@!\321\031\000\2721\f\210\021N`C\034j\322\b\004\031)\000xh4`\000\360~\377)\000 \000\377\367\302\376:\000)\0000h\377\367\317\376\004\036\007\321\001\0000h\377\367\267\376\003\000 \000\000+\000\320\004H\370\275\004H\374\347\300F\304\005\000\b\344\003\000\b\001\001\212\000\003\001\212\000\020\265\000*\r\321\000)\024\321\013K\032h\023\000\2723\033\210XC\023j\300\030\bK\030`\b\000\020\275\000)\006\320\006K\031`\031\000Z`\377\367\253\377\365\347\003H\363\347\304\005\000\b\344\003\000\bx\003\000\b\003\001\212\000\367\265\030O\004\000;h\001\221\336h3h\203B&\331\000%\251B\002\321\377\367\245\375\005\0008h\003h\000+\032\332\037\"\001#\"@\223@d\trh\244\000\024\031\"h\023B\r\320\232C\"`\000$\000!\377\367^\376\001\233\000+\002\321(\000\377\367\215\375 \000\376\275\003L\362\347\003L\363\347\003L\367\347\344\003\000\b\002\001\210\000\003\001\210\000\004\001\212\000\nK\033h\333h\032h\202B\r\331Yh\037#B\t\030@\036;\203@\222\000PX\030@C\036\230A\003K\300\030pG\002H\374\347\344\003\000\b\000\001\210\000\004\001\212\000\005K\033h\032\000\2102\033h\022h\233\030\030h\000\n\300\262pG\300F\304\005\000\b\004K\033h\032\000\2102\033h\022h\233\030\030h\000\016pG\304\005\000\b\002K\030i@\007\300\017pG\300F\000\000'@\246\"\005I\322\000\213X\002 \333C\233\007\002\320\001#\210X\030@pG\000\000&@\020\265\377\367\357\377\000#\002(\001\321\001K\033h\030\000\020\275\354\003\000\b\tJ\203\000\233\030\320\"\222\000\230X\007\"\020@\004(\007\321\300\"\222\000\230X\037#\003@\200 @\000\030CpG\300F\000\000&@\020\265\377\367\347\377\002(\034\320\005\330\000($\320\001(\024\320\000 \024\340\022#\3773\230B\024\320\024#\3773\230B\025\320\003;\230B\362\321\fJ\fK\323X\000+\355\332\200 \000\002\001\340\nK\030h\020\275\377\367\272\377\373\347\377\367\241\377\000(\340\320\361\347\002J\005K\353\347\005H\361\347\300F\000\000&@\f\005\000\000\350\003\000\b<\005\000\000\000\022z\000\260#\025J\333\000\323X\020\265\231\003\333\001\333\017\211\013\303q\021K\001`\323X\017$\331\004\333\001\333\r\003\201\261#\333\000\323X\311\f\201\200\031\000!@\201r\031\t!@\301r\331\002\233\000\233\017\203s\007K\311\f\323X\201\201Z\005\333\001R\017\333\r\202q\003\202\020\275\000\000&@\204\005\000\000\214\005\000\000\020\265\020KB\036\033h?3\033x\223B\026\331\177\"\037$\2000\3770\013K\200\000\303X\032@\np\032\f\"@\030\n\212p\032\001 @\342@Hp\000 \233\000\233\017\312p\013q\020\275\003H\374\347\300F\304\005\000\b\000\000&@\001\000J\000\360\265\211\260\003\254\024\"\000! \000\000\360\366\375 \000\377\367\233\377\260#\032J\333\000\322X\000#\232B\003\332\243{\002;Z\036\223A\345y\000&j\036\225A\0015\263B!\320\244\210\264B\036\320\003\2330\000\001\223\377\367G\377*\0003\000\007\0001\000 \000\000\360\274\374\f\000\005\0003\000\001\2321\0008\000\000\360\264\374\346\007j\b2Cc\b\200\030YA*\000#\000\000\360\212\374\006\0000\000\t\260\360\275\000\000&@\360\265\000&$K\205\260\033h\007\000?3\033x\263B>\320\260B<\320\203B:\323\005\"1\000\002\250\000\360\247\375\002\2518\000\377\367}\377;\000\2003\3773\031J\233\000\233X\263B)\332\002\253\033y\002+%\320\002\253\\x\264B!\320\235x\265B\036\320\033x8\000\001\223\377\367\371\376*\0003\000\007\0001\000 \000\000\360n\374\f\000\005\0003\000\001\2321\0008\000\000\360f\374\346\007j\b2Cc\b\200\030YA*\000#\000\000\360<\374\006\0000\000\005\260\360\275\304\005\000\b\000\000&@\020\265\004\036\004\321\377\367g\377\000(\006\320\b\340\006K\033h?3\033x\203B\003\322 \000\377\367\307\376\020\275\377\367\234\377\357\347\300F\304\005\000\b\340\"\020\265\001$\tK\200\000\222\000\300\030\203X\200X\233\006\233\017\234@\017#\030@\377\367\330\377c\b\030\030!\000\000\360{\373\020\275\000\000&@\024K0\265\032h\007$\023\000,3\033x\037+\025\330\203\b\035\000\245C,\036\017\321\0034 @\240@\201@\022h\233\000 2\323\030\n\000\377!\201@\034hb@\021@a@\031`0\275\200# @\033\006\030C\200#\233\001\022h\311\030\211\000\210P\363\347\304\005\000\b\006K\232h\003\000\006H\0203\233\000\202B\002\321\230X\231PpG\003J\320X\373\347\000\355\000\340\000\000\000\b\000\000\000\020\370\265\006\000\r\000\000(:\320\000#\300^\000((\333q\210\377\367\264\377\000$\377\"\003'\224F\000#\360^qh\203\262\037@\377\000fF\272@\211\0011@\322C\271@\000(\025\333\021N\203\b\233\000\233\031\300&\266\000\237Y:@\021C\231Q\rK\232h\rK\232B\002\321)\000\377\367\274\377 \000\370\275\nL\330\347\017&3@\b;\006N\233\b\233\000\233\031\336i2@\021C\331a\347\347\003L\355\347\000\341\000\340\000\355\000\340\000\000\000\b\001\000V\000\376\347\000\000\002h\nK\020\265\032`BhZ`\202h\232`\302h\332`\002i\032aBiZa\202i\232a\302i\332a\377\367\352\377\020\275\300F\220\003\000\b\260#[\005Zx! \000*\001\320Xx\300\262pG\260#[\005\232\211\000*\002\320\230\211\200\262pG\200 @\000\373\347\177\265'K\206\000\r\000\364X\004)\001\320\001)'\321\000 \017\340\243h+B\013\321\343h)\000\032h[h\002\222\001\223\003\223\002\250#h\230G\034K\034`di\000,\013\320\033K\230B\352\321\001-\350\321\027K\030H\032h\030K\232Q\004\260p\275\001-\373\321\024K\230B\363\320\023K\234Q\365\347\002)\006\321\017K\033h\030\036\357\320\034i\003\340\034\000ci\000+\373\321\000 \000,\346\320\243h+B\t\321\343h)\000\032h[h\002\222\001\223\003\223\002\250#h\230G$i\356\347\300F0\004\000\b,\004\000\b\377\000B\000\030\004\000\b\032K\033h\031\000\2101\032h\thQ\030\th\001b\031\000\2141\thR\030\022hBb\032\000F2\022x\000*\037\320\232h\3402\022h\322\006\032\325\362\"\333h\322\001\232X\002`\360\"\322\001\232XB`\nJ\232X\202`\nJ\232X\302`\tJ\232X\002a\tJ\232XBa\bJ\232X\202a\bJ\233X\303apG\300F\304\005\000\b\004x\000\000\bx\000\000\fx\000\000\020x\000\000\024x\000\000\030x\000\000\032K\033h\032\000\2102\031h\022h\212\030\001j\021`\032\000\2142\031h\022h\212\030Aj\021`\032\000F2\022x\000*\036\320\232h\3402\022h\322\006\031\325\360\"Ah\333h\322\001\231P\201h\013J\231P\301h\013J\231P\001i\nJ\231PAi\nJ\231P\201i\tJ\231P\301i\tJ\231P\001h\3502\231PpG\300F\304\005\000\b\004x\000\000\bx\000\000\fx\000\000\020x\000\000\024x\000\000\030x\000\000\367\265\007\000\377\367\b\377fM\006\000kh\000+\000\320}\340\377\367\017\372kh\000\220\000+\000\320\211\340aL\"h\023\000\2723\031\210\007#KC\022j\233\030\032h\000*\374\332\333h\332\000!\325\033\017\033\007YH\001\223\377\367R\377XI!.\000\320u\340\"h\220 \023\000\2103\034h\023h\000\001\034\031#h\013@\003C#`\023\000\2143\022h\033h\323\030\032h\021@\bC\030`KK\001\232\023C\200\"HN\222\0051h\023C\n\000\2722\020\210\007\"\000$BC\tjR\030\323`T`Sh\377\367\301\376\200#[\000\230B]\3218\000\000\360[\3732h\023\000\2723\031\210\007#KC\022j\233\030\032h\000*\374\332\337h\373\000\003\3258\001\000\t\377\367O\3776K2h\037@\023\000\2723\031\210\007#KC\022j\000\230\233\030\000\"\337`Z`\377\367\242\371\000,\017\321kh\000+\003\320\b!\001 \377\367\232\376 \000\376\275\001!\b\000\377\367\224\376\004\036\000\321z\347kh\000+\003\320\002!\001 \377\367\212\376\"K\234B\354\320\"L\352\347\004!\001 \377\367\201\376p\347 h\200\"\003\000\2103\034h\003hR\000\034\031#h\013@\023C#`\003\000\2143\000h\033h\303\030\030h\001@\nC\032`\210\3473h\032\000\2742\031j\022hR\030\021h\000)\020\333\2723\033\210\232\030\023h\000+\n\333\004#\fJ\021i\013C\023a\001/\001\3200\277\214\347 \277\212\347\005L\210\3470\004\000\b\304\005\000\b\360\003\000\b\377\000\377\377\377\377\377\337\005\000B\000\377\000B\000\000\355\000\340\300\"\200 \006IR\000\213X\300\005\233\000\233\b\003C\213P\200#\210X\033\006\003C\213PpG\000\000&@\020\265b\266\003H\000\360\301\370\000 \377\367\004\377\373\347\300F\000 \000\020\020\265\000 \377\367\370\372\020\275pG\020\265\000 \377\367F\375\004\036%\320\023K\030`\377\367\274\373A\034 \000\000\360\314\370\020K\004\000\030`\377\367\245\373A\034 \000\000\360\303\370\rKD\036\030`\fI \000\000\360\274\370\372!\013K\0010\030p\211\000 \000\000\360\264\370\bK\0010\030`\bK\300\003\030`\020\275\300F\204\000\000\b\210\000\000\b\200\000\000\b@B\017\000\224\000\000\b\220\000\000\b\214\000\000\b\020\265 H\377\367\034\371\260\"\340!0 \036L\322\000\243X\211\000[\000[\b\243PcX\203CcP\200#[\004\243P\030K\031J\342P\240\"\0043\222\001\342P\377\"\026K\342P\377\367\200\377\300\"\001!R\000\243X\213C\243P\377\367\233\377\377\367\232\377\020K\003 \032h\023\000\2723\031\210\007#KC\022j\200!\233\030\000\"\332`Z`\nJ\377\367\307\372\nH\377\367\232\371\tH\377\367\323\371\020\275 \024\000\020\000\000&@\204\005\000\000\001\000\002\000\214\005\000\000\304\005\000\b\200\003\000\bD\004\000\b\340\024\000\020\220#\003J[\001\320X\003#\030@pG\300F\000\000 @\020\265\220$\377\367w\370\007Kd\001\032Y\007I\021@\007J\nC\032Q\020\"Yh\021B\374\320\377\367m\370\020\275\300F\000\000 @\374\377\000\000\001\000\372\005\370\265\220%\016Lm\001\007\000\377\367Z\370cY\006\000\333C\233\007\001\321\377\367\330\377\200#\233\000\347PcY\007J\032@\007K\023CcQ\020#bh\032B\374\3200\000\377\367G\370\370\275\300F\000\000 @\374\377\000\000\003\000\372\005\000\"C\b\213Bt\323\003\t\213B_\323\003\n\213BD\323\003\013\213B(\323\003\f\213B\r\323\377\"\t\002\022\272\003\f\213B\002\323\022\022\t\002e\320\003\013\213B\031\323\000\340\t\n\303\013\213B\001\323\313\003\300\032RA\203\013\213B\001\323\213\003\300\032RAC\013\213B\001\323K\003\300\032RA\003\013\213B\001\323\013\003\300\032RA\303\n\213B\001\323\313\002\300\032RA\203\n\213B\001\323\213\002\300\032RAC\n\213B\001\323K\002\300\032RA\003\n\213B\001\323\013\002\300\032RA\315\322\303\t\213B\001\323\313\001\300\032RA\203\t\213B\001\323\213\001\300\032RAC\t\213B\001\323K\001\300\032RA\003\t\213B\001\323\013\001\300\032RA\303\b\213B\001\323\313\000\300\032RA\203\b\213B\001\323\213\000\300\032RAC\b\213B\001\323K\000\300\032RAA\032\000\322\001FRA\020FpG\377\347\001\265\000 \000\360\006\370\002\275\300F\000)\367\320v\347pGpG\300F\000+\021\321\000*\017\321\000)\000\321\000(\002\320\000!\311C\b\034\007\264\002H\002\241@\030\002\220\003\275\300F\331\377\377\377\003\264hF\001\265\002\230\000\3600\370\001\233\236F\002\260\f\274pG\300F\360\265\316FGF\025\004-\f.\000\200\265\007\004\024\f?\f\231F\003\f~C]CgCcC\177\0314\f\344\031\234F\245B\003\331\200#[\002\230F\304DKFCCQC%\f6\004eD6\f$\004\244\031[\031Y\030 \000\f\274\220F\231F\360\275\360\265OFFF\326F\300\265\004\000\202\260\r\000\221F\230F\213B/\330,\320AFHF\000\360\317\370)\000\006\000 \000\000\360\312\3703\032\234F ;\232F\000\325v\340KFRF\223@\037\000KFbF\223@\036\000\257B(\330%\320SF\244\033\275A\000+\000\332{\340\000\"\000#\000\222\001\223\001#RF\223@\001\223\001#bF\223@\000\223\030\340\202B\320\331\000\"\000#\000\222\001\223\n\233\000+\001\320\034`]`\000\230\001\231\002\260\034\274\220F\231F\242F\360\275\243B\327\331\000\"\000#\000\222\001\223cF\000+\351\320\373\007\230FAFr\b\nC{\bfF\016\340\253B\001\321\242B\f\330\244\032\235A\001 $\031mA\000!\001>$\030MA\000.\006\320\253B\356\331\001>$\031mA\000.\370\321\000\230\001\231SF\000\031iA\000+#\333+\000RF\323@*\000dF\342@\034\000SF\025\000\000+-\333&\000WF\276@3\000&\000gF\276@2\000\200\032\231A\000\220\001\221\254\347bF #\233\032JF\332@aF\023\000BF\212@\027\000\037C\200\347bF #\233\032*\000fF\232@#\000\363@\023C\324\347bF #\000!\233\032\000\"\000\221\001\222\001\"\332@\001\222\200\347 #bF&\000\233\032\336@/\000\260FfF\267@FF;\0003C\310\347\300F\034!\001#\033\004\230B\001\323\000\f\0209\033\n\230B\001\323\000\n\b9\033\t\230B\001\323\000\t\0049\002\242\020\\@\030pG\300F\004\003\002\002\001\001\001\001\000\000\000\000\000\000\000\000\020\265\000)\003\321\377\367\335\377 0\002\340\b\034\377\367\330\377\020\275\300F\003\000\022\030\223B\000\321pG\031p\0013\371\347\370\265\300F\370\274\b\274\236FpG\370\265\300F\370\274\b\274\236FpG\001\264\002H\204F\001\274`G\000\277a\002\000\b\000\000 @\000\000$@\000\000\000@\000\000\000\000\000\000#@\000\0000@\000\0001@\000\000\237@\000\000\"@\000\000\020@\000\000\235@     \020\020\020\020\035\035\200\027\000u\000\377\003\006\002\006\0006\004\020 \000\000\177\300\000\000\000\004\000\000\000\000\000\000\000\0312Kd}\000\000\000\000\000\200@\000\b\013\020\000\000\000\000\000\377\001 \002\000\037\000\200\000\004\377\b\020\030\000\020\000\024\000\030\000\034@DHLP\000\000\000\b\020\000\000\b\000\000\000\004\000\000\000\004\020\000\000\000\022\000\000\004!\000\000\000!\000\000\000\026\000\000@\021@\002\304\023\000\023\200\023\240\023@\023\210\023\250\023 \000\034\000\000\000\003\000\000\000\001\000\000\000\001\000\000\000\000\000\000\000\005\003`\000\004\000\000\000\001\000\000\000\000\000\000\000\001\000\000\000\006\004`\000\b\000\000\000\244\005\000\b\245\016\000\020\000\000\000\000\370\374\377\177\001\000\000\000\000\000\000\020\000\000\000\b\200\000\000\000@\025\000\020\200\000\000\b\370\002\000\000\260\003\000\b\030\002\000\000\000\t=\000\000\022z\000\000\t=\000\000\000\320\007\240\017\000\000\004\000\000\000\251\000\000\020\201\000\000\020\200\2620\265\300\000 \320\020K\007\"\034h#\000\2723\033\210ZC#j\323\030\031h\000)\374\332>!\013K\006%\031`\nK\013I\031`\243!\nK\311\000]P\nIXPXX j\022\030\000 P`ZX\000*\374\3320\275\304\005\000\b\004\001&@\b\001&@\036\037\000\000\000\000&@\034\005\000\000\020\265Cx\377+\021\321\000\360\354\370\004\000\003 \000\360\370\370\303hZh\001#\021h\031C\021`\021h\031B\374\321 \000\000\360\f\371\020\275\367\265\000\220\000 \001\221\000\360\345\370?M\006\000+h\032\000P3\2742\024h\033x\004\031\000+Z\320\000\360\340\370\007\000\003(\033\320\000\360\303\3707J7K\005\000\323X\000+>\3326J\001!0\000\000\360\360\370\000(7\321\001\230\377\367\217\377\000\233\000+>\320#h\000+\374\333\000\360\263\370\004\000+\340\006 \000\360\266\370+h\2743\033h\300\030\003h\000+\002\332(L \000\376\275\000 \000\360\271\370&K\230B\366\320\000#%J\031\000\022h\001 \000\360\267\370\000%\250B\354\321\000 \000\360\251\370\036J\037K\220B\003\320\235B\343\320\0015\364\347\235B\271\321\336\347\027L\003/\005\321\001!\000 \000\360\267\370\000(\371\321(\000\000\360\242\370\322\347\025L\361\347\000\360m\370\016J\005\000\001!0\000\000\360\237\370\000(\t\321\000\233\000+\b\320#h\000+\374\333\000\360e\370\004\000\345\347\006L\343\347\tL\341\347\300F\304\005\000\b\000\000&@\034\005\000\000\314\003\000\b\005\000R\000\001\001\210\000\334\003\000\b\360I\002\000\001\000P\000\030K\367\265\033h\030J\\h\004#\021i\013C\023a\001($\3200\277#\000\3743\033i\000+\035\321\243 \021K\022I\022J\300\000\017h\036X\025h\001\225\020M\r`\006%\035P> \020`\016H>5\035P\035X\000-\374\332\fH\3744 a\017`\243!\311\000^P\001\233\023`\367\275 \277\331\347\304\005\000\b\000\355\000\340\000\000&@\b\001&@\004\001&@\036\037\000\000\034\005\000\000\252\252\252\252\000\000\000\000\001\264\002H\204F\001\274`G\000\277\333\000\000\020\001\264\002H\204F\001\274`G\000\2779\002\000\020\001\264\002H\204F\001\274`G\000\277u\001\000\020\001\264\002H\204F\001\274`G\000\277\321\017\000\020\001\264\002H\204F\001\274`G\000\277\351\005\000\020\001\264\002H\204F\001\274`G\000\277\271\003\000\020\001\264\002H\204F\001\274`G\000\277\343\000\000\020\001\264\002H\204F\001\274`G\000\277\235\002\000\020\001\264\002H\204F\001\274`G\000\277u\005\000\020\000\000\000\000\000\000\000\000\000\000\000\000\000\000\000\000\000\000\000\000\000\000\000"
	.size	CM0_BOOT, 6224

	.section	.rodata..L__unnamed_1,"a",%progbits
.Lsec_end0:
	.section	.rodata._ZN16psoc6_helloworld18aes_using_1d_array4sbox17h0222d62579877ce2E,"a",%progbits
.Lsec_end1:
	.section	.rodata._ZN16psoc6_helloworld18aes_using_1d_array4Rcon17hd315d3ea6fb0175cE,"a",%progbits
.Lsec_end2:
	.section	.cm0boot,"a",%progbits
.Lsec_end3:
	.section	".text._ZN42_$LT$$RF$T$u20$as$u20$core..fmt..Debug$GT$3fmt17h727afcaae8af8915E","ax",%progbits
.Lsec_end4:
	.section	".text._ZN46_$LT$u8$u20$as$u20$core..iter..range..Step$GT$17forward_unchecked17h6e8c7b17f40da170E","ax",%progbits
.Lsec_end5:
	.section	".text._ZN49_$LT$usize$u20$as$u20$core..iter..range..Step$GT$17forward_unchecked17h41c4f27ac3428d36E","ax",%progbits
.Lsec_end6:
	.section	.text._ZN4core10intrinsics19copy_nonoverlapping17h1b316760e9a21f7bE,"ax",%progbits
.Lsec_end7:
	.section	".text._ZN4core3cmp5impls54_$LT$impl$u20$core..cmp..PartialOrd$u20$for$u20$u8$GT$2lt17ha73b01d0dc4d6f51E","ax",%progbits
.Lsec_end8:
	.section	".text._ZN4core3cmp5impls57_$LT$impl$u20$core..cmp..PartialOrd$u20$for$u20$usize$GT$2lt17hbbefb1a93b0b532cE","ax",%progbits
.Lsec_end9:
	.section	.text._ZN4core3mem7replace17h3e57e96ceb21c253E,"ax",%progbits
.Lsec_end10:
	.section	.text._ZN4core3mem7replace17hca17d03d47a0b465E,"ax",%progbits
.Lsec_end11:
	.section	".text._ZN4core3ptr49drop_in_place$LT$$RF$$u5b$u8$u3b$$u20$16$u5d$$GT$17h6cc075015c357d26E","ax",%progbits
.Lsec_end12:
	.section	.text._ZN4core3ptr4read17h59ba669ab07a421cE,"ax",%progbits
.Lsec_end13:
	.section	.text._ZN4core3ptr4read17hd85fb8cbc930429aE,"ax",%progbits
.Lsec_end14:
	.section	.text._ZN4core3ptr5write17h6f1fd0138c38a088E,"ax",%progbits
.Lsec_end15:
	.section	.text._ZN4core3ptr5write17hee5f80fbe7c4b083E,"ax",%progbits
.Lsec_end16:
	.section	".text._ZN4core3ptr9const_ptr33_$LT$impl$u20$$BP$const$u20$T$GT$4cast17h6610ea5ef4ccdfe9E","ax",%progbits
.Lsec_end17:
	.section	".text._ZN4core4iter5range101_$LT$impl$u20$core..iter..traits..iterator..Iterator$u20$for$u20$core..ops..range..Range$LT$A$GT$$GT$4next17hcabbf5f88e3653c1E","ax",%progbits
.Lsec_end18:
	.section	".text._ZN4core4iter5range101_$LT$impl$u20$core..iter..traits..iterator..Iterator$u20$for$u20$core..ops..range..Range$LT$A$GT$$GT$4next17hcbb06759ad56c6b1E","ax",%progbits
.Lsec_end19:
	.section	".text._ZN4core5array69_$LT$impl$u20$core..fmt..Debug$u20$for$u20$$u5b$T$u3b$$u20$N$u5d$$GT$3fmt17h214dd6ca32508366E","ax",%progbits
.Lsec_end20:
	.section	".text._ZN4core5array85_$LT$impl$u20$core..ops..index..Index$LT$I$GT$$u20$for$u20$$u5b$T$u3b$$u20$N$u5d$$GT$5index17h4c1b68debacc17ffE","ax",%progbits
.Lsec_end21:
	.section	".text._ZN4core5array8equality103_$LT$impl$u20$core..cmp..PartialEq$LT$$u5b$B$u3b$$u20$N$u5d$$GT$$u20$for$u20$$u5b$A$u3b$$u20$N$u5d$$GT$2eq17hc7586892cf584a96E","ax",%progbits
.Lsec_end22:
	.section	".text._ZN4core5clone5impls51_$LT$impl$u20$core..clone..Clone$u20$for$u20$u8$GT$5clone17h6e1e1ebae28178b9E","ax",%progbits
.Lsec_end23:
	.section	".text._ZN4core5clone5impls54_$LT$impl$u20$core..clone..Clone$u20$for$u20$usize$GT$5clone17h16dca161784da84aE","ax",%progbits
.Lsec_end24:
	.section	".text._ZN4core5slice29_$LT$impl$u20$$u5b$T$u5d$$GT$10as_mut_ptr17hfc17b318a2c4dfdfE","ax",%progbits
.Lsec_end25:
	.section	".text._ZN4core5slice29_$LT$impl$u20$$u5b$T$u5d$$GT$15copy_from_slice17h62fbe66ed1453669E","ax",%progbits
.Lsec_end26:
	.section	".text._ZN4core5slice29_$LT$impl$u20$$u5b$T$u5d$$GT$6as_ptr17h052f412474cc3215E","ax",%progbits
.Lsec_end27:
	.section	".text._ZN4core5slice5index74_$LT$impl$u20$core..ops..index..Index$LT$I$GT$$u20$for$u20$$u5b$T$u5d$$GT$5index17hb982854f567cd8faE","ax",%progbits
.Lsec_end28:
	.section	.text.unlikely._ZN4core9panicking13assert_failed17h2ada0f01fe89275cE,"ax",%progbits
.Lsec_end29:
	.section	".text._ZN63_$LT$I$u20$as$u20$core..iter..traits..collect..IntoIterator$GT$9into_iter17h68f643edbae10ba2E","ax",%progbits
.Lsec_end30:
	.section	".text._ZN69_$LT$T$u20$as$u20$core..array..equality..SpecArrayEq$LT$U$C$_$GT$$GT$7spec_eq17h243197d4c20727a9E","ax",%progbits
.Lsec_end31:
	.section	".text._ZN89_$LT$core..ops..range..Range$LT$T$GT$$u20$as$u20$core..iter..range..RangeIteratorImpl$GT$9spec_next17h9e22d44170085d2fE","ax",%progbits
.Lsec_end32:
	.section	".text._ZN89_$LT$core..ops..range..Range$LT$T$GT$$u20$as$u20$core..iter..range..RangeIteratorImpl$GT$9spec_next17hd50387ef7723c30cE","ax",%progbits
.Lsec_end33:
	.section	".text._ZN97_$LT$core..ops..range..RangeFull$u20$as$u20$core..slice..index..SliceIndex$LT$$u5b$T$u5d$$GT$$GT$5index17h9273492733351ec3E","ax",%progbits
.Lsec_end34:
	.section	.text._ZN16psoc6_helloworld18aes_using_1d_array14get_sbox_value17h4a52c89ebeeaba73E,"ax",%progbits
.Lsec_end35:
	.section	.text._ZN16psoc6_helloworld18aes_using_1d_array3AES13key_expansion17hb3d707a7f2d145e3E,"ax",%progbits
.Lsec_end36:
	.section	.text._ZN16psoc6_helloworld18aes_using_1d_array3AES13add_round_key17h260249fcde2671f7E,"ax",%progbits
.Lsec_end37:
	.section	.text._ZN16psoc6_helloworld18aes_using_1d_array3AES9sub_bytes17h1d20ec394156158bE,"ax",%progbits
.Lsec_end38:
	.section	.text._ZN16psoc6_helloworld18aes_using_1d_array3AES10shift_rows17h655687efdc93a617E,"ax",%progbits
.Lsec_end39:
	.section	.text._ZN16psoc6_helloworld18aes_using_1d_array3AES5xtime17h75af3aa34aa6b75fE,"ax",%progbits
.Lsec_end40:
	.section	.text._ZN16psoc6_helloworld18aes_using_1d_array3AES11mix_columns17hae674e2398e04980E,"ax",%progbits
.Lsec_end41:
	.section	.text._ZN16psoc6_helloworld18aes_using_1d_array3AES10gen_cipher17h1a7c8873908aaa05E,"ax",%progbits
.Lsec_end42:
	.section	.text._ZN16psoc6_helloworld18aes_using_1d_array3AES18AES128_ECB_encrypt17h92fa4e8ab697e97eE,"ax",%progbits
.Lsec_end43:
	.section	.text._ZN16psoc6_helloworld18aes_using_1d_array8test_aes17hfdafd4eaf1a4feb2E,"ax",%progbits
.Lsec_end44:
	.section	.text.main,"ax",%progbits
.Lsec_end45:
	.section	.text._ZN16psoc6_helloworld18__cortex_m_rt_main17h242fc4e94d5a7cb6E,"ax",%progbits
.Lsec_end46:
	.section	".note.GNU-stack","",%progbits
	.eabi_attribute	30, 1