	.text
	.syntax unified
	.eabi_attribute	67, "2.09"
	.eabi_attribute	6, 13
	.eabi_attribute	7, 77
	.eabi_attribute	8, 0
	.eabi_attribute	9, 2
	.eabi_attribute	34, 1
	.eabi_attribute	17, 1
	.eabi_attribute	20, 1
	.eabi_attribute	21, 0
	.eabi_attribute	23, 3
	.eabi_attribute	24, 1
	.eabi_attribute	25, 1
	.eabi_attribute	38, 1
	.eabi_attribute	14, 0
	.file	"4rq6qnytf4n49gxi"
	.file	1 "C:\\Users\\KumarAnkita\\Documents\\trying_on_win\\aes_impl\\src\\aes_using_1d_array.rs"
	.file	2 "C:\\Users\\KumarAnkita\\Documents\\trying_on_win\\aes_impl\\src\\main.rs"
	.section	".text._ZN42_$LT$$RF$T$u20$as$u20$core..fmt..Debug$GT$3fmt17ha4d47d0b029dff35E","ax",%progbits
	.p2align	1
	.type	_ZN42_$LT$$RF$T$u20$as$u20$core..fmt..Debug$GT$3fmt17ha4d47d0b029dff35E,%function
	.code	16
	.thumb_func
_ZN42_$LT$$RF$T$u20$as$u20$core..fmt..Debug$GT$3fmt17ha4d47d0b029dff35E:
.Lfunc_begin0:
	.file	3 "/rustc/db9d1b20bba1968c1ec1fc49616d4742c1725b4b/library/core/src/fmt\\mod.rs"
	.loc	3 2087 0
	.fnstart
	.cfi_sections .debug_frame
	.cfi_startproc
	.save	{r7, lr}
	push	{r7, lr}
	.cfi_def_cfa_offset 8
	.cfi_offset lr, -4
	.cfi_offset r7, -8
	.setfp	r7, sp
	mov	r7, sp
	.cfi_def_cfa_register r7
	.pad	#8
	sub	sp, #8
.Ltmp0:
	.loc	3 2087 71 prologue_end
	ldr	r0, [r0]
.Ltmp1:
	.loc	3 0 71 is_stmt 0
	movs	r2, #16
.Ltmp2:
	.file	4 "/rustc/db9d1b20bba1968c1ec1fc49616d4742c1725b4b/library/core/src/array\\mod.rs"
	.loc	4 231 26 is_stmt 1
	strd	r0, r2, [sp]
	mov	r0, sp
.Ltmp3:
	.loc	4 231 9 is_stmt 0
	bl	_ZN42_$LT$$RF$T$u20$as$u20$core..fmt..Debug$GT$3fmt17hda0d10c8ea1d7738E
.Ltmp4:
	.loc	3 2087 84 is_stmt 1
	add	sp, #8
	pop	{r7, pc}
.Ltmp5:
.Lfunc_end0:
	.size	_ZN42_$LT$$RF$T$u20$as$u20$core..fmt..Debug$GT$3fmt17ha4d47d0b029dff35E, .Lfunc_end0-_ZN42_$LT$$RF$T$u20$as$u20$core..fmt..Debug$GT$3fmt17ha4d47d0b029dff35E
	.cfi_endproc
	.cantunwind
	.fnend

	.section	".text._ZN4core3ptr49drop_in_place$LT$$RF$$u5b$u8$u3b$$u20$16$u5d$$GT$17h416a91502b9c335cE","ax",%progbits
	.p2align	1
	.type	_ZN4core3ptr49drop_in_place$LT$$RF$$u5b$u8$u3b$$u20$16$u5d$$GT$17h416a91502b9c335cE,%function
	.code	16
	.thumb_func
_ZN4core3ptr49drop_in_place$LT$$RF$$u5b$u8$u3b$$u20$16$u5d$$GT$17h416a91502b9c335cE:
.Lfunc_begin1:
	.file	5 "/rustc/db9d1b20bba1968c1ec1fc49616d4742c1725b4b/library/core/src/ptr\\mod.rs"
	.loc	5 188 0
	.fnstart
	.cfi_startproc
	.loc	5 188 1 prologue_end
	bx	lr
.Ltmp6:
.Lfunc_end1:
	.size	_ZN4core3ptr49drop_in_place$LT$$RF$$u5b$u8$u3b$$u20$16$u5d$$GT$17h416a91502b9c335cE, .Lfunc_end1-_ZN4core3ptr49drop_in_place$LT$$RF$$u5b$u8$u3b$$u20$16$u5d$$GT$17h416a91502b9c335cE
	.cfi_endproc
	.cantunwind
	.fnend

	.section	.text.unlikely._ZN4core9panicking13assert_failed17h2a1ca2431ab258ddE,"ax",%progbits
	.p2align	1
	.type	_ZN4core9panicking13assert_failed17h2a1ca2431ab258ddE,%function
	.code	16
	.thumb_func
_ZN4core9panicking13assert_failed17h2a1ca2431ab258ddE:
.Lfunc_begin2:
	.file	6 "/rustc/db9d1b20bba1968c1ec1fc49616d4742c1725b4b/library/core/src\\panicking.rs"
	.loc	6 135 0
	.fnstart
	.cfi_startproc
	.save	{r7, lr}
	push	{r7, lr}
	.cfi_def_cfa_offset 8
	.cfi_offset lr, -4
	.cfi_offset r7, -8
	.setfp	r7, sp
	mov	r7, sp
	.cfi_def_cfa_register r7
	.pad	#48
	sub	sp, #48
	strd	r0, r1, [sp, #16]
	add.w	r12, sp, #24
.Ltmp7:
	.loc	6 145 46 prologue_end
	ldm.w	r2, {r0, r3, r4, r5, r6, lr}
.Ltmp8:
	.loc	6 145 5 is_stmt 0
	movw	r2, :lower16:.L__unnamed_1
.Ltmp9:
	.loc	6 145 46
	mov	r1, r12
.Ltmp10:
	.loc	6 145 5
	movt	r2, :upper16:.L__unnamed_1
	.loc	6 145 46
	stm.w	r1, {r0, r3, r4, r5, r6, lr}
.Ltmp11:
	.loc	6 145 5
	movw	r0, :lower16:.L__unnamed_2
	movt	r0, :upper16:.L__unnamed_2
	add	r1, sp, #16
	add	r3, sp, #20
	str	r0, [sp, #8]
	movs	r0, #0
	strd	r2, r12, [sp]
	bl	_ZN4core9panicking19assert_failed_inner17hf111e574873d4158E
	.inst.n	0xdefe
.Ltmp12:
.Lfunc_end2:
	.size	_ZN4core9panicking13assert_failed17h2a1ca2431ab258ddE, .Lfunc_end2-_ZN4core9panicking13assert_failed17h2a1ca2431ab258ddE
	.cfi_endproc
	.cantunwind
	.fnend

	.section	.text._ZN16psoc6_helloworld18aes_using_1d_array3AES13add_round_key17ha08b8a7f84d8470bE,"ax",%progbits
	.p2align	1
	.type	_ZN16psoc6_helloworld18aes_using_1d_array3AES13add_round_key17ha08b8a7f84d8470bE,%function
	.code	16
	.thumb_func
_ZN16psoc6_helloworld18aes_using_1d_array3AES13add_round_key17ha08b8a7f84d8470bE:
.Lfunc_begin3:
	.loc	1 152 0 is_stmt 1
	.fnstart
	.cfi_startproc
	.save	{r4, r5, r7, lr}
	push	{r4, r5, r7, lr}
	.cfi_def_cfa_offset 16
	.cfi_offset lr, -4
	.cfi_offset r7, -8
	.cfi_offset r5, -12
	.cfi_offset r4, -16
	.setfp	r7, sp, #8
	add	r7, sp, #8
	.cfi_def_cfa r7, 8
	uxtb	r1, r1
.Ltmp13:
	movs	r2, #0
.Ltmp14:
	.loc	1 0 0 prologue_end
	lsls	r3, r1, #2
	uxtb.w	r12, r3
	ubfx	r1, r12, #6, #24
	cmp	r1, #0
	it	ne
	movne	r1, #1
.Ltmp15:
	.file	7 "/rustc/db9d1b20bba1968c1ec1fc49616d4742c1725b4b/library/core/src/iter\\range.rs"
	.loc	7 621 12
	cmp.w	r2, r3, lsr #8
	it	eq
	cmpeq	r1, #0
	beq	.LBB3_2
.Ltmp16:
	.loc	1 158 31
	movw	r0, :lower16:str.0
.Ltmp17:
	movw	r2, :lower16:.L__unnamed_3
	movt	r0, :upper16:str.0
	movt	r2, :upper16:.L__unnamed_3
	movs	r1, #33
	bl	_ZN4core9panicking5panic17h9d087799dbe178ebE
	.inst.n	0xdefe
.Ltmp18:
.LBB3_2:
	.loc	1 0 0 is_stmt 0
	lsl.w	r2, r12, #2
	mvn	r3, #79
	ldr	r1, [r0]
.Ltmp19:
	.loc	1 158 31
	uxtab	r0, r0, r2
.Ltmp20:
	uqsub8	r3, r3, r2
	add.w	lr, r0, #8
	uxtb.w	r12, r2
.Ltmp21:
	.loc	1 159 48 is_stmt 1
	uxtb	r3, r3
	movs	r2, #0
.Ltmp22:
.LBB3_3:
	cmp	r3, r2
	beq	.LBB3_6
.Ltmp23:
	ldrb.w	r4, [lr, r2]
.Ltmp24:
	.loc	1 0 0 is_stmt 0
	adds	r0, r2, #1
.Ltmp25:
	.loc	1 159 21
	ldrb	r5, [r1, r2]
.Ltmp26:
	.loc	7 621 12 is_stmt 1
	cmp	r0, #16
.Ltmp27:
	.loc	1 159 21
	eor.w	r4, r4, r5
	strb	r4, [r1, r2]
.Ltmp28:
	.loc	1 0 21 is_stmt 0
	mov	r2, r0
.Ltmp29:
	.loc	7 621 12 is_stmt 1
	bne	.LBB3_3
.Ltmp30:
	.loc	1 161 12
	pop	{r4, r5, r7, pc}
.Ltmp31:
.LBB3_6:
	.loc	1 159 48
	add.w	r0, r12, r2
	movw	r2, :lower16:.L__unnamed_4
.Ltmp32:
	movt	r2, :upper16:.L__unnamed_4
	movs	r1, #176
	bl	_ZN4core9panicking18panic_bounds_check17h80646fc287624916E
	.inst.n	0xdefe
.Ltmp33:
.Lfunc_end3:
	.size	_ZN16psoc6_helloworld18aes_using_1d_array3AES13add_round_key17ha08b8a7f84d8470bE, .Lfunc_end3-_ZN16psoc6_helloworld18aes_using_1d_array3AES13add_round_key17ha08b8a7f84d8470bE
	.cfi_endproc
	.cantunwind
	.fnend

	.section	.text._ZN16psoc6_helloworld18aes_using_1d_array3AES10shift_rows17h3d725cef8c484a6eE,"ax",%progbits
	.p2align	1
	.type	_ZN16psoc6_helloworld18aes_using_1d_array3AES10shift_rows17h3d725cef8c484a6eE,%function
	.code	16
	.thumb_func
_ZN16psoc6_helloworld18aes_using_1d_array3AES10shift_rows17h3d725cef8c484a6eE:
.Lfunc_begin4:
	.loc	1 172 0
	.fnstart
	.cfi_startproc
	.save	{r7, lr}
	push	{r7, lr}
	.cfi_def_cfa_offset 8
	.cfi_offset lr, -4
	.cfi_offset r7, -8
	.setfp	r7, sp
	mov	r7, sp
	.cfi_def_cfa_register r7
.Ltmp34:
	.loc	1 184 24 prologue_end
	ldr	r0, [r0]
.Ltmp35:
	.loc	1 187 24
	ldrb	r1, [r0, #13]
.Ltmp36:
	.loc	1 184 24
	ldrb	r2, [r0, #1]
.Ltmp37:
	.loc	1 191 13
	strb	r2, [r0, #13]
.Ltmp38:
	.loc	1 186 24
	ldrb	r2, [r0, #9]
.Ltmp39:
	.loc	1 190 13
	strb	r1, [r0, #9]
.Ltmp40:
	.loc	1 196 24
	ldrb	r1, [r0, #10]
.Ltmp41:
	.loc	1 194 24
	ldrb.w	lr, [r0, #2]
.Ltmp42:
	.loc	1 199 13
	strb	r1, [r0, #2]
.Ltmp43:
	.loc	1 195 24
	ldrb	r1, [r0, #6]
.Ltmp44:
	.loc	1 185 24
	ldrb	r3, [r0, #5]
.Ltmp45:
	.loc	1 189 13
	strb	r2, [r0, #5]
.Ltmp46:
	.loc	1 197 24
	ldrb	r2, [r0, #14]
.Ltmp47:
	.loc	1 202 13
	strb	r1, [r0, #14]
.Ltmp48:
	.loc	1 209 24
	ldrb	r1, [r0, #15]
.Ltmp49:
	.loc	1 206 24
	ldrb.w	r12, [r0, #3]
.Ltmp50:
	.loc	1 200 13
	strb	r2, [r0, #6]
.Ltmp51:
	.loc	1 211 13
	strb	r1, [r0, #3]
.Ltmp52:
	.loc	1 207 24
	ldrb	r1, [r0, #7]
.Ltmp53:
	.loc	1 208 24
	ldrb	r2, [r0, #11]
.Ltmp54:
	.loc	1 188 13
	strb	r3, [r0, #1]
.Ltmp55:
	.loc	1 201 13
	strb.w	lr, [r0, #10]
.Ltmp56:
	.loc	1 214 13
	strb	r2, [r0, #15]
	.loc	1 213 13
	strb	r1, [r0, #11]
	.loc	1 212 13
	strb.w	r12, [r0, #7]
.Ltmp57:
	.loc	1 215 14
	pop	{r7, pc}
.Ltmp58:
.Lfunc_end4:
	.size	_ZN16psoc6_helloworld18aes_using_1d_array3AES10shift_rows17h3d725cef8c484a6eE, .Lfunc_end4-_ZN16psoc6_helloworld18aes_using_1d_array3AES10shift_rows17h3d725cef8c484a6eE
	.cfi_endproc
	.cantunwind
	.fnend

	.section	.text.main,"ax",%progbits
	.globl	main
	.p2align	1
	.type	main,%function
	.code	16
	.thumb_func
main:
.Lfunc_begin5:
	.loc	2 80 0
	.fnstart
	.cfi_startproc
	.save	{r7, lr}
	push	{r7, lr}
	.cfi_def_cfa_offset 8
	.cfi_offset lr, -4
	.cfi_offset r7, -8
	.setfp	r7, sp
	mov	r7, sp
	.cfi_def_cfa_register r7
.Ltmp59:
	.loc	2 80 1 prologue_end
	bl	_ZN16psoc6_helloworld18__cortex_m_rt_main17h29c983ff66e9eadeE
	.inst.n	0xdefe
.Ltmp60:
.Lfunc_end5:
	.size	main, .Lfunc_end5-main
	.cfi_endproc
	.cantunwind
	.fnend

	.section	.text._ZN16psoc6_helloworld18__cortex_m_rt_main17h29c983ff66e9eadeE,"ax",%progbits
	.p2align	1
	.type	_ZN16psoc6_helloworld18__cortex_m_rt_main17h29c983ff66e9eadeE,%function
	.code	16
	.thumb_func
_ZN16psoc6_helloworld18__cortex_m_rt_main17h29c983ff66e9eadeE:
.Lfunc_begin6:
	.loc	2 81 0
	.fnstart
	.cfi_startproc
	.save	{r7, lr}
	push	{r7, lr}
	.cfi_def_cfa_offset 8
	.cfi_offset lr, -4
	.cfi_offset r7, -8
	.setfp	r7, sp
	mov	r7, sp
	.cfi_def_cfa_register r7
	.pad	#264
	sub	sp, #264
	movw	r0, #53001
	add	r4, sp, #40
.Ltmp61:
	movt	r0, #15439
	add.w	r8, sp, #56
.Ltmp62:
	.loc	1 391 23 prologue_end
	str	r0, [sp, #20]
	movw	r0, #63403
	movt	r0, #34837
.Ltmp63:
	.file	8 "/rustc/db9d1b20bba1968c1ec1fc49616d4742c1725b4b/library/core/src\\intrinsics.rs"
	.loc	8 2079 14
	mov	r1, r4
.Ltmp64:
	.loc	1 391 23
	str	r0, [sp, #16]
	movw	r0, #44584
	movt	r0, #42706
	str	r0, [sp, #12]
	movw	r0, #32299
	movt	r0, #5653
	str	r0, [sp, #8]
	movw	r0, #44869
	movt	r0, #20878
.Ltmp65:
	.loc	1 392 24
	str	r0, [sp, #36]
	movw	r0, #47006
	movt	r0, #44143
	str	r0, [sp, #32]
	movw	r0, #798
	movt	r0, #40108
	str	r0, [sp, #28]
	movw	r0, #11694
	movt	r0, #22410
	str	r0, [sp, #24]
	add	r0, sp, #24
.Ltmp66:
	.loc	8 2079 14
	ldm.w	r0, {r2, r3, r5, r6}
.Ltmp67:
	.loc	1 398 22
	add.w	r0, r8, #8
.Ltmp68:
	.loc	8 2079 14
	stm	r1!, {r2, r3, r5, r6}
.Ltmp69:
	.loc	1 399 38
	movs	r1, #176
	bl	__aeabi_memclr4
	add	r0, sp, #8
	movs	r1, #0
	.loc	1 398 22
	strd	r4, r0, [sp, #56]
.Ltmp70:
.LBB6_1:
	.loc	1 94 13
	add.w	r2, r8, r1
	.loc	1 94 53 is_stmt 0
	ldr	r3, [r0, r1]
.Ltmp71:
	.file	9 "/rustc/db9d1b20bba1968c1ec1fc49616d4742c1725b4b/library/core/src\\cmp.rs"
	.loc	9 1327 52 is_stmt 1
	adds	r1, #4
.Ltmp72:
	.loc	7 621 12
	cmp	r1, #16
.Ltmp73:
	.loc	1 94 13
	str	r3, [r2, #8]
.Ltmp74:
	.loc	7 621 12
	bne	.LBB6_1
.Ltmp75:
	.loc	7 0 12 is_stmt 0
	movw	r6, :lower16:_ZN16psoc6_helloworld18aes_using_1d_array4sbox17ha99de1698463ff0aE
	movw	r12, :lower16:_ZN16psoc6_helloworld18aes_using_1d_array4Rcon17h1877f2e39af14f55E
	movs	r0, #0
	movt	r6, :upper16:_ZN16psoc6_helloworld18aes_using_1d_array4sbox17ha99de1698463ff0aE
	movt	r12, :upper16:_ZN16psoc6_helloworld18aes_using_1d_array4Rcon17h1877f2e39af14f55E
.Ltmp76:
.LBB6_3:
	.file	10 "/rustc/db9d1b20bba1968c1ec1fc49616d4742c1725b4b/library/core/src/num\\uint_macros.rs"
	.loc	10 463 22 is_stmt 1
	add.w	r2, r8, r0, lsl #2
.Ltmp77:
	adds	r3, r0, #4
.Ltmp78:
	.loc	1 106 15
	ldrb.w	r11, [r2, #20]
.Ltmp79:
	.loc	1 108 16
	lsls	r5, r3, #30
.Ltmp80:
	.loc	1 106 15
	ldrb.w	r10, [r2, #21]
	ldrb.w	r9, [r2, #22]
	ldrb.w	lr, [r2, #23]
.Ltmp81:
	.loc	1 108 16
	bne	.LBB6_5
.Ltmp82:
	.loc	1 133 43
	ubfx	r3, r3, #2, #6
.Ltmp83:
	.loc	1 68 5
	ldrb.w	r1, [r6, r10]
.Ltmp84:
	.loc	1 68 5 is_stmt 0
	ldrb.w	r4, [r6, r11]
.Ltmp85:
	.loc	1 133 38 is_stmt 1
	ldrb.w	r3, [r12, r3]
.Ltmp86:
	.loc	1 68 5
	ldrb.w	r5, [r6, lr]
.Ltmp87:
	.loc	1 68 5 is_stmt 0
	ldrb.w	r10, [r6, r9]
.Ltmp88:
	.loc	1 133 15 is_stmt 1
	eors	r3, r1
	mov	lr, r4
.Ltmp89:
	.loc	1 0 15 is_stmt 0
	mov	r9, r5
.Ltmp90:
	mov	r11, r3
.Ltmp91:
.LBB6_5:
	.loc	1 145 51 is_stmt 1
	ldrb	r3, [r2, #8]
.Ltmp92:
	.loc	7 621 12
	adds	r0, #1
.Ltmp93:
	.loc	1 147 51
	ldrb	r1, [r2, #10]
.Ltmp94:
	.loc	7 621 12
	cmp	r0, #40
.Ltmp95:
	.loc	1 146 51
	ldrb	r5, [r2, #9]
	.loc	1 145 13
	eor.w	r3, r3, r11
	.loc	1 148 51
	ldrb	r4, [r2, #11]
	.loc	1 147 13
	eor.w	r1, r1, r9
	.loc	1 145 13
	strb	r3, [r2, #24]
	.loc	1 146 13
	eor.w	r3, r5, r10
	.loc	1 147 13
	strb	r1, [r2, #26]
	.loc	1 148 13
	eor.w	r1, r4, lr
	.loc	1 146 13
	strb	r3, [r2, #25]
	.loc	1 148 13
	strb	r1, [r2, #27]
.Ltmp96:
	.loc	7 621 12
	bne	.LBB6_3
.Ltmp97:
	.loc	7 0 12 is_stmt 0
	add	r4, sp, #56
.Ltmp98:
	.loc	1 251 13 is_stmt 1
	movs	r1, #0
	mov	r0, r4
	bl	_ZN16psoc6_helloworld18aes_using_1d_array3AES13add_round_key17ha08b8a7f84d8470bE
	ldr.w	r10, [sp, #56]
.Ltmp99:
	.loc	1 0 13 is_stmt 0
	movs	r0, #1
	mov.w	r11, #27
.Ltmp100:
.LBB6_7:
	str	r0, [sp, #4]
	movs	r0, #0
.Ltmp101:
.LBB6_8:
	.loc	1 167 54 is_stmt 1
	ldrb.w	r1, [r10, r0]
.Ltmp102:
	.loc	1 68 5
	ldrb	r1, [r6, r1]
.Ltmp103:
	.loc	1 167 21
	strb.w	r1, [r10, r0]
.Ltmp104:
	.loc	10 463 22
	adds	r0, #1
.Ltmp105:
	.loc	7 621 12
	cmp	r0, #16
	bne	.LBB6_8
.Ltmp106:
	.loc	1 257 17
	mov	r0, r4
	bl	_ZN16psoc6_helloworld18aes_using_1d_array3AES10shift_rows17h3d725cef8c484a6eE
	movs	r0, #0
.Ltmp107:
.LBB6_10:
	.loc	1 230 23
	add.w	r1, r10, r0
	ldrb.w	r2, [r10, r0]
.Ltmp108:
	.loc	1 231 41
	ldrb.w	lr, [r1, #1]
	.loc	1 231 81 is_stmt 0
	ldrb	r5, [r1, #3]
	.loc	1 231 23
	eor.w	r4, lr, r2
.Ltmp109:
	.loc	1 231 61
	ldrb.w	r8, [r1, #2]
	.loc	1 231 23
	sxtb	r3, r4
.Ltmp110:
	.loc	1 219 20 is_stmt 1
	eor.w	r12, r2, r4, lsl #1
	.loc	1 219 29 is_stmt 0
	and.w	r3, r11, r3, lsr #7
.Ltmp111:
	.loc	1 241 17 is_stmt 1
	eors	r2, r5
.Ltmp112:
	.loc	1 234 36
	eor.w	r12, r12, r3
	.loc	1 231 23
	eor.w	r3, r8, r4
	.loc	1 231 17 is_stmt 0
	eor.w	r9, r3, r5
.Ltmp113:
	.loc	1 243 38 is_stmt 1
	eor.w	r3, r3, r2, lsl #1
	.loc	1 241 17
	sxtb	r2, r2
	.loc	1 234 17
	eor.w	r6, r12, r9
.Ltmp114:
	.loc	1 219 29
	and.w	r2, r11, r2, lsr #7
.Ltmp115:
	.loc	1 234 17
	strb.w	r6, [r10, r0]
	.loc	1 243 17
	eors	r2, r3
	.loc	1 238 17
	eor.w	r3, r5, r8
.Ltmp116:
	.loc	1 243 17
	strb	r2, [r1, #3]
.Ltmp117:
	.loc	1 219 20
	eor.w	r2, r5, r4
.Ltmp118:
	.loc	1 245 19
	adds	r0, #4
.Ltmp119:
	.loc	1 240 38
	eor.w	r2, r2, r3, lsl #1
	.loc	1 238 17
	sxtb	r3, r3
.Ltmp120:
	.loc	1 219 29
	and.w	r3, r11, r3, lsr #7
.Ltmp121:
	.loc	1 228 20
	cmp	r0, #16
	.loc	1 240 17
	eor.w	r2, r2, r3
	.loc	1 235 17
	eor.w	r3, r8, lr
.Ltmp122:
	.loc	1 240 17
	strb	r2, [r1, #2]
.Ltmp123:
	.loc	1 219 20
	eor.w	r2, r9, lr
.Ltmp124:
	.loc	1 237 38
	eor.w	r2, r2, r3, lsl #1
	.loc	1 235 17
	sxtb	r3, r3
.Ltmp125:
	.loc	1 219 29
	and.w	r3, r11, r3, lsr #7
.Ltmp126:
	.loc	1 237 17
	eor.w	r2, r2, r3
	strb	r2, [r1, #1]
	.loc	1 228 20
	bne	.LBB6_10
.Ltmp127:
	.loc	1 0 20 is_stmt 0
	ldr	r5, [sp, #4]
	add	r4, sp, #56
	.loc	1 259 17 is_stmt 1
	mov	r0, r4
	mov	r1, r5
	bl	_ZN16psoc6_helloworld18aes_using_1d_array3AES13add_round_key17ha08b8a7f84d8470bE
	movw	r6, :lower16:_ZN16psoc6_helloworld18aes_using_1d_array4sbox17ha99de1698463ff0aE
.Ltmp128:
	.loc	10 463 22
	adds	r0, r5, #1
	uxtb	r1, r5
.Ltmp129:
	.loc	7 621 12
	cmp	r1, #9
	movt	r6, :upper16:_ZN16psoc6_helloworld18aes_using_1d_array4sbox17ha99de1698463ff0aE
	blo	.LBB6_7
.Ltmp130:
	.loc	7 0 12 is_stmt 0
	movs	r0, #0
.Ltmp131:
.LBB6_13:
	.loc	1 167 54 is_stmt 1
	ldrb.w	r1, [r10, r0]
.Ltmp132:
	.loc	1 68 5
	ldrb	r1, [r6, r1]
.Ltmp133:
	.loc	1 167 21
	strb.w	r1, [r10, r0]
.Ltmp134:
	.loc	10 463 22
	adds	r0, #1
.Ltmp135:
	.loc	7 621 12
	cmp	r0, #16
	bne	.LBB6_13
.Ltmp136:
	.loc	7 0 12 is_stmt 0
	add	r4, sp, #56
	.loc	1 263 13 is_stmt 1
	mov	r0, r4
	bl	_ZN16psoc6_helloworld18aes_using_1d_array3AES10shift_rows17h3d725cef8c484a6eE
	.loc	1 264 13
	mov	r0, r4
	movs	r1, #10
	bl	_ZN16psoc6_helloworld18aes_using_1d_array3AES13add_round_key17ha08b8a7f84d8470bE
.Ltmp137:
	.loc	1 0 13 is_stmt 0
	add	r0, sp, #40
	add	r1, sp, #24
.Ltmp138:
	.file	11 "/rustc/db9d1b20bba1968c1ec1fc49616d4742c1725b4b/library/core/src/array\\equality.rs"
	.loc	11 132 13 is_stmt 1
	movs	r2, #16
	bl	memcmp
.Ltmp139:
	.loc	1 404 5
	cbnz	r0, .LBB6_16
.Ltmp140:
.LBB6_15:
	.loc	2 126 1
	b	.LBB6_15
.LBB6_16:
.Ltmp141:
	.loc	2 0 1 is_stmt 0
	add	r4, sp, #240
.Ltmp142:
	.loc	1 404 5 is_stmt 1
	movs	r1, #24
	mov	r0, r4
	bl	__aeabi_memclr4
	add	r0, sp, #40
	add	r1, sp, #24
	mov	r2, r4
	bl	_ZN4core9panicking13assert_failed17h2a1ca2431ab258ddE
	.inst.n	0xdefe
.Ltmp143:
.Lfunc_end6:
	.size	_ZN16psoc6_helloworld18__cortex_m_rt_main17h29c983ff66e9eadeE, .Lfunc_end6-_ZN16psoc6_helloworld18__cortex_m_rt_main17h29c983ff66e9eadeE
	.cfi_endproc
	.file	12 "/rustc/db9d1b20bba1968c1ec1fc49616d4742c1725b4b/library/core/src/slice\\mod.rs"
	.cantunwind
	.fnend

	.type	.L__unnamed_1,%object
	.section	.rodata..L__unnamed_1,"a",%progbits
	.p2align	2
.L__unnamed_1:
	.long	_ZN4core3ptr49drop_in_place$LT$$RF$$u5b$u8$u3b$$u20$16$u5d$$GT$17h416a91502b9c335cE
	.asciz	"\004\000\000\000\004\000\000"
	.long	_ZN42_$LT$$RF$T$u20$as$u20$core..fmt..Debug$GT$3fmt17ha4d47d0b029dff35E
	.size	.L__unnamed_1, 16

	.type	_ZN16psoc6_helloworld18aes_using_1d_array4sbox17ha99de1698463ff0aE,%object
	.section	.rodata._ZN16psoc6_helloworld18aes_using_1d_array4sbox17ha99de1698463ff0aE,"a",%progbits
_ZN16psoc6_helloworld18aes_using_1d_array4sbox17ha99de1698463ff0aE:
	.ascii	"c|w{\362ko\3050\001g+\376\327\253v\312\202\311}\372YG\360\255\324\242\257\234\244r\300\267\375\223&6?\367\3144\245\345\361q\3301\025\004\307#\303\030\226\005\232\007\022\200\342\353'\262u\t\203,\032\033nZ\240R;\326\263)\343/\204S\321\000\355 \374\261[j\313\2769JLX\317\320\357\252\373CM3\205E\371\002\177P<\237\250Q\243@\217\222\2358\365\274\266\332!\020\377\363\322\315\f\023\354_\227D\027\304\247~=d]\031s`\201O\334\"*\220\210F\356\270\024\336^\013\333\3402:\nI\006$\\\302\323\254b\221\225\344y\347\3107m\215\325N\251lV\364\352ez\256\b\272x%.\034\246\264\306\350\335t\037K\275\213\212p>\265fH\003\366\016a5W\271\206\301\035\236\341\370\230\021i\331\216\224\233\036\207\351\316U(\337\214\241\211\r\277\346BhA\231-\017\260T\273\026"
	.size	_ZN16psoc6_helloworld18aes_using_1d_array4sbox17ha99de1698463ff0aE, 256

	.type	_ZN16psoc6_helloworld18aes_using_1d_array4Rcon17h1877f2e39af14f55E,%object
	.section	.rodata._ZN16psoc6_helloworld18aes_using_1d_array4Rcon17h1877f2e39af14f55E,"a",%progbits
_ZN16psoc6_helloworld18aes_using_1d_array4Rcon17h1877f2e39af14f55E:
	.ascii	"\215\001\002\004\b\020 @\200\0336l\330\253M\232/^\274c\306\2275j\324\263}\372\357\305\2219r\344\323\275a\302\237%J\2243f\314\203\035:t\350\313\215\001\002\004\b\020 @\200\0336l\330\253M\232/^\274c\306\2275j\324\263}\372\357\305\2219r\344\323\275a\302\237%J\2243f\314\203\035:t\350\313\215\001\002\004\b\020 @\200\0336l\330\253M\232/^\274c\306\2275j\324\263}\372\357\305\2219r\344\323\275a\302\237%J\2243f\314\203\035:t\350\313\215\001\002\004\b\020 @\200\0336l\330\253M\232/^\274c\306\2275j\324\263}\372\357\305\2219r\344\323\275a\302\237%J\2243f\314\203\035:t\350\313\215\001\002\004\b\020 @\200\0336l\330\253M\232/^\274c\306\2275j\324\263}\372\357\305\2219r\344\323\275a\302\237%J\2243f\314\203\035:t\350\313"
	.size	_ZN16psoc6_helloworld18aes_using_1d_array4Rcon17h1877f2e39af14f55E, 255

	.type	.L__unnamed_5,%object
	.section	.rodata..L__unnamed_5,"a",%progbits
.L__unnamed_5:
	.ascii	"src\\aes_using_1d_array.rs"
	.size	.L__unnamed_5, 25

	.type	str.0,%object
	.section	.rodata.str.0,"a",%progbits
	.p2align	4
str.0:
	.ascii	"attempt to multiply with overflow"
	.size	str.0, 33

	.type	.L__unnamed_3,%object
	.section	.rodata..L__unnamed_3,"a",%progbits
	.p2align	2
.L__unnamed_3:
	.long	.L__unnamed_5
	.asciz	"\031\000\000\000\236\000\000\000\037\000\000"
	.size	.L__unnamed_3, 16

	.type	.L__unnamed_4,%object
	.section	.rodata..L__unnamed_4,"a",%progbits
	.p2align	2
.L__unnamed_4:
	.long	.L__unnamed_5
	.asciz	"\031\000\000\000\237\000\000\0000\000\000"
	.size	.L__unnamed_4, 16

	.type	.L__unnamed_2,%object
	.section	.rodata..L__unnamed_2,"a",%progbits
	.p2align	2
.L__unnamed_2:
	.long	.L__unnamed_5
	.asciz	"\031\000\000\000\224\001\000\000\005\000\000"
	.size	.L__unnamed_2, 16

	.type	CM0_BOOT,%object
	.section	.cm0boot,"a",%progbits
	.globl	CM0_BOOT
CM0_BOOT:
	.asciz	"\000 \000\b\353\000\000\020\r\000\000\000M\001\000\020\000\000\000\000\000\000\000\000\000\000\000\000\000\000\000\000\000\000\000\000\000\000\000\000\000\000\000\000I\001\000\020\000\000\000\000\000\000\000\000I\001\000\020I\001\000\020I\001\000\020I\001\000\020I\001\000\020I\001\000\020I\001\000\020I\001\000\020I\001\000\020I\001\000\020I\001\000\020I\001\000\020I\001\000\020I\001\000\020I\001\000\020I\001\000\020I\001\000\020I\001\000\020\020\265\006L#x\000+\007\321\005K\000+\002\320\004H\000\340\000\277\001##p\020\275\260\003\000\b\000\000\000\000\024\025\000\020\004K\020\265\000+\003\320\003I\004H\000\340\000\277\020\275\300F\000\000\000\000\264\003\000\b\024\025\000\020\0020\200\b\003\320\0010\0028\374\321\300F\300FpG\357\363\020\200r\266pG\200\363\020\210pGpG\377\367\375\377r\266\017L\020M\254B\t\332!hbh\243h\004;\002\333\310X\320P\372\347\f4\363\347\nI\013J\000 R\032\002\335\004:\210P\374\334\bH\tI\b`\277\363O\217\000\360\377\376\000\360\257\376\376\347 \025\000\0208\025\000\020\260\003\000\b\310\005\000\b\000\000\000\b\b\355\000\340\376\347\376\347\000\265\004 qF\bB\002\320\357\363\t\200\001\340\357\363\b\200\0040\000\360\223\374\376\347\001K\030`pG\300F\304\005\000\b\004K\033h\032\000\2722\022\210\033jPC\300\030pG\300F\304\005\000\b\035K\230B\017\320\020\330@(/\320\005\330\000(0\320\020((\320\031H\036\340\200((\320\200#[\000\230B\367\321\024H\026\340\025K\230B\024\320\b\330\240#\033\006\230B\034\320\022K\230B\352\321\240 \013\340\020K\230B\n\320\020K\230B\t\320\017K\230B\337\321\017HpG\244 \300\003\373\347\rH\371\347\rH\367\347\rH\365\347\rH\363\347\rH\361\347\000 \357\347\006\000R\000\377\000R\000\001\000\000\360\t\000\000\240\004\000\000\360\005\000\000\360\003\000\000\360\001\000R\000\002\000R\000\003\000R\000\001\000P\000\002\000P\000\005\000R\000\020\265\000 \377\367\232\377\nK\034h#\000\2743\033h\300\030\003h\000+\n\333\007K\030h\377\367\231\377\001\"ch\232`\232h\000*\374\321\020\275\002H\374\347\304\005\000\b\314\003\000\b\002\000P\000\006K\033h\2743\033h\303\030\033h\000+\003\332\211\262A`\000 pG\001H\374\347\304\005\000\b\001\000\212\000\003h\000+\004\332\211\262\302`\201`\000 pG\000H\374\347\001\000\212\000\006K\033h\2743\033h\303\030\033h\000+\003\332\303h\000 \013`pG\001H\374\347\304\005\000\b\001\000\212\000\002K\032h\000*\000\321\030`pG\340\003\000\b\360\265,$`C\025L\037\000$h\035\n \030\377$%@'@\022L\033\f&h\007`4jE`\203`\27266\210wC?\031\007a/\000\2007m\001\177\001\347\031d\031\nMGa\037\004;Cd\031#`\000#\203a\005\233\302a\001b\000+\001\320\033\210\203\201\360\275\300F\340\003\000\b\304\005\000\b\b\020\000\000\360\265\203h\205\260\002\255+\200\025K\002h\033h\006j\033\217Gj\233\030k\200Ch\000\225\202j\301j\004\000\003\223\003i\300h\377\367\265\377\000!;\000\n\000\000\2210\000\377\367\256\377!k(\000\000\3600\373\000\"\253^\000+\006\333\037\"\023@\036:\232@\023\000\003J\023`\005\260\360\275\300F\304\005\000\b\000\341\000\340\367\265,%\023LhC&hiC4\030%i\001\223q\030\000-\031\320\210i\000(\030\321.h\000.\025\332gh\001$&\000Kh\236@\264F\023h\236\262cF\033\004\036C\026`\352`\214a\274@\001\233\244\262Kb\254`\376\275\002H\374\347\002H\372\347\340\003\000\b\004\002\212\000\007\002\212\000s\265\000&Bi\004\000\325h\001\226+\f\263B!\320\033\004\023`\023h\031K\000i\033h\2743\033h\303\030\033h\263B\025\332\001\251\377\3676\377\260B\f\321\001\230\342i\003h\036\f\333\262\232B\005\331\"j\233\000\233X\000+\000\320\230G1\000 i\377\367\005\377\255\262\000-\t\320ci\035`\000%\033hcj\253B\005\320\230Geb\245aci\033hs\275\243j\000+\370\320\230G\366\347\304\005\000\b,#\020\265CC\003J\020h\300\030\377\367\266\377\020\275\300F\340\003\000\b\370\265\031K\017\000\033h\032\00032\022x\202B'\331\000)%\320\037%\nh\025@!\321\031\000\2721\f\210\021N`C\034j\322\b\004\031)\000xh4`\000\360~\377)\000 \000\377\367\302\376:\000)\0000h\377\367\317\376\004\036\007\321\001\0000h\377\367\267\376\003\000 \000\000+\000\320\004H\370\275\004H\374\347\300F\304\005\000\b\344\003\000\b\001\001\212\000\003\001\212\000\020\265\000*\r\321\000)\024\321\013K\032h\023\000\2723\033\210XC\023j\300\030\bK\030`\b\000\020\275\000)\006\320\006K\031`\031\000Z`\377\367\253\377\365\347\003H\363\347\304\005\000\b\344\003\000\bx\003\000\b\003\001\212\000\367\265\030O\004\000;h\001\221\336h3h\203B&\331\000%\251B\002\321\377\367\245\375\005\0008h\003h\000+\032\332\037\"\001#\"@\223@d\trh\244\000\024\031\"h\023B\r\320\232C\"`\000$\000!\377\367^\376\001\233\000+\002\321(\000\377\367\215\375 \000\376\275\003L\362\347\003L\363\347\003L\367\347\344\003\000\b\002\001\210\000\003\001\210\000\004\001\212\000\nK\033h\333h\032h\202B\r\331Yh\037#B\t\030@\036;\203@\222\000PX\030@C\036\230A\003K\300\030pG\002H\374\347\344\003\000\b\000\001\210\000\004\001\212\000\005K\033h\032\000\2102\033h\022h\233\030\030h\000\n\300\262pG\300F\304\005\000\b\004K\033h\032\000\2102\033h\022h\233\030\030h\000\016pG\304\005\000\b\002K\030i@\007\300\017pG\300F\000\000'@\246\"\005I\322\000\213X\002 \333C\233\007\002\320\001#\210X\030@pG\000\000&@\020\265\377\367\357\377\000#\002(\001\321\001K\033h\030\000\020\275\354\003\000\b\tJ\203\000\233\030\320\"\222\000\230X\007\"\020@\004(\007\321\300\"\222\000\230X\037#\003@\200 @\000\030CpG\300F\000\000&@\020\265\377\367\347\377\002(\034\320\005\330\000($\320\001(\024\320\000 \024\340\022#\3773\230B\024\320\024#\3773\230B\025\320\003;\230B\362\321\fJ\fK\323X\000+\355\332\200 \000\002\001\340\nK\030h\020\275\377\367\272\377\373\347\377\367\241\377\000(\340\320\361\347\002J\005K\353\347\005H\361\347\300F\000\000&@\f\005\000\000\350\003\000\b<\005\000\000\000\022z\000\260#\025J\333\000\323X\020\265\231\003\333\001\333\017\211\013\303q\021K\001`\323X\017$\331\004\333\001\333\r\003\201\261#\333\000\323X\311\f\201\200\031\000!@\201r\031\t!@\301r\331\002\233\000\233\017\203s\007K\311\f\323X\201\201Z\005\333\001R\017\333\r\202q\003\202\020\275\000\000&@\204\005\000\000\214\005\000\000\020\265\020KB\036\033h?3\033x\223B\026\331\177\"\037$\2000\3770\013K\200\000\303X\032@\np\032\f\"@\030\n\212p\032\001 @\342@Hp\000 \233\000\233\017\312p\013q\020\275\003H\374\347\300F\304\005\000\b\000\000&@\001\000J\000\360\265\211\260\003\254\024\"\000! \000\000\360\366\375 \000\377\367\233\377\260#\032J\333\000\322X\000#\232B\003\332\243{\002;Z\036\223A\345y\000&j\036\225A\0015\263B!\320\244\210\264B\036\320\003\2330\000\001\223\377\367G\377*\0003\000\007\0001\000 \000\000\360\274\374\f\000\005\0003\000\001\2321\0008\000\000\360\264\374\346\007j\b2Cc\b\200\030YA*\000#\000\000\360\212\374\006\0000\000\t\260\360\275\000\000&@\360\265\000&$K\205\260\033h\007\000?3\033x\263B>\320\260B<\320\203B:\323\005\"1\000\002\250\000\360\247\375\002\2518\000\377\367}\377;\000\2003\3773\031J\233\000\233X\263B)\332\002\253\033y\002+%\320\002\253\\x\264B!\320\235x\265B\036\320\033x8\000\001\223\377\367\371\376*\0003\000\007\0001\000 \000\000\360n\374\f\000\005\0003\000\001\2321\0008\000\000\360f\374\346\007j\b2Cc\b\200\030YA*\000#\000\000\360<\374\006\0000\000\005\260\360\275\304\005\000\b\000\000&@\020\265\004\036\004\321\377\367g\377\000(\006\320\b\340\006K\033h?3\033x\203B\003\322 \000\377\367\307\376\020\275\377\367\234\377\357\347\300F\304\005\000\b\340\"\020\265\001$\tK\200\000\222\000\300\030\203X\200X\233\006\233\017\234@\017#\030@\377\367\330\377c\b\030\030!\000\000\360{\373\020\275\000\000&@\024K0\265\032h\007$\023\000,3\033x\037+\025\330\203\b\035\000\245C,\036\017\321\0034 @\240@\201@\022h\233\000 2\323\030\n\000\377!\201@\034hb@\021@a@\031`0\275\200# @\033\006\030C\200#\233\001\022h\311\030\211\000\210P\363\347\304\005\000\b\006K\232h\003\000\006H\0203\233\000\202B\002\321\230X\231PpG\003J\320X\373\347\000\355\000\340\000\000\000\b\000\000\000\020\370\265\006\000\r\000\000(:\320\000#\300^\000((\333q\210\377\367\264\377\000$\377\"\003'\224F\000#\360^qh\203\262\037@\377\000fF\272@\211\0011@\322C\271@\000(\025\333\021N\203\b\233\000\233\031\300&\266\000\237Y:@\021C\231Q\rK\232h\rK\232B\002\321)\000\377\367\274\377 \000\370\275\nL\330\347\017&3@\b;\006N\233\b\233\000\233\031\336i2@\021C\331a\347\347\003L\355\347\000\341\000\340\000\355\000\340\000\000\000\b\001\000V\000\376\347\000\000\002h\nK\020\265\032`BhZ`\202h\232`\302h\332`\002i\032aBiZa\202i\232a\302i\332a\377\367\352\377\020\275\300F\220\003\000\b\260#[\005Zx! \000*\001\320Xx\300\262pG\260#[\005\232\211\000*\002\320\230\211\200\262pG\200 @\000\373\347\177\265'K\206\000\r\000\364X\004)\001\320\001)'\321\000 \017\340\243h+B\013\321\343h)\000\032h[h\002\222\001\223\003\223\002\250#h\230G\034K\034`di\000,\013\320\033K\230B\352\321\001-\350\321\027K\030H\032h\030K\232Q\004\260p\275\001-\373\321\024K\230B\363\320\023K\234Q\365\347\002)\006\321\017K\033h\030\036\357\320\034i\003\340\034\000ci\000+\373\321\000 \000,\346\320\243h+B\t\321\343h)\000\032h[h\002\222\001\223\003\223\002\250#h\230G$i\356\347\300F0\004\000\b,\004\000\b\377\000B\000\030\004\000\b\032K\033h\031\000\2101\032h\thQ\030\th\001b\031\000\2141\thR\030\022hBb\032\000F2\022x\000*\037\320\232h\3402\022h\322\006\032\325\362\"\333h\322\001\232X\002`\360\"\322\001\232XB`\nJ\232X\202`\nJ\232X\302`\tJ\232X\002a\tJ\232XBa\bJ\232X\202a\bJ\233X\303apG\300F\304\005\000\b\004x\000\000\bx\000\000\fx\000\000\020x\000\000\024x\000\000\030x\000\000\032K\033h\032\000\2102\031h\022h\212\030\001j\021`\032\000\2142\031h\022h\212\030Aj\021`\032\000F2\022x\000*\036\320\232h\3402\022h\322\006\031\325\360\"Ah\333h\322\001\231P\201h\013J\231P\301h\013J\231P\001i\nJ\231PAi\nJ\231P\201i\tJ\231P\301i\tJ\231P\001h\3502\231PpG\300F\304\005\000\b\004x\000\000\bx\000\000\fx\000\000\020x\000\000\024x\000\000\030x\000\000\367\265\007\000\377\367\b\377fM\006\000kh\000+\000\320}\340\377\367\017\372kh\000\220\000+\000\320\211\340aL\"h\023\000\2723\031\210\007#KC\022j\233\030\032h\000*\374\332\333h\332\000!\325\033\017\033\007YH\001\223\377\367R\377XI!.\000\320u\340\"h\220 \023\000\2103\034h\023h\000\001\034\031#h\013@\003C#`\023\000\2143\022h\033h\323\030\032h\021@\bC\030`KK\001\232\023C\200\"HN\222\0051h\023C\n\000\2722\020\210\007\"\000$BC\tjR\030\323`T`Sh\377\367\301\376\200#[\000\230B]\3218\000\000\360[\3732h\023\000\2723\031\210\007#KC\022j\233\030\032h\000*\374\332\337h\373\000\003\3258\001\000\t\377\367O\3776K2h\037@\023\000\2723\031\210\007#KC\022j\000\230\233\030\000\"\337`Z`\377\367\242\371\000,\017\321kh\000+\003\320\b!\001 \377\367\232\376 \000\376\275\001!\b\000\377\367\224\376\004\036\000\321z\347kh\000+\003\320\002!\001 \377\367\212\376\"K\234B\354\320\"L\352\347\004!\001 \377\367\201\376p\347 h\200\"\003\000\2103\034h\003hR\000\034\031#h\013@\023C#`\003\000\2143\000h\033h\303\030\030h\001@\nC\032`\210\3473h\032\000\2742\031j\022hR\030\021h\000)\020\333\2723\033\210\232\030\023h\000+\n\333\004#\fJ\021i\013C\023a\001/\001\3200\277\214\347 \277\212\347\005L\210\3470\004\000\b\304\005\000\b\360\003\000\b\377\000\377\377\377\377\377\337\005\000B\000\377\000B\000\000\355\000\340\300\"\200 \006IR\000\213X\300\005\233\000\233\b\003C\213P\200#\210X\033\006\003C\213PpG\000\000&@\020\265b\266\003H\000\360\301\370\000 \377\367\004\377\373\347\300F\000 \000\020\020\265\000 \377\367\370\372\020\275pG\020\265\000 \377\367F\375\004\036%\320\023K\030`\377\367\274\373A\034 \000\000\360\314\370\020K\004\000\030`\377\367\245\373A\034 \000\000\360\303\370\rKD\036\030`\fI \000\000\360\274\370\372!\013K\0010\030p\211\000 \000\000\360\264\370\bK\0010\030`\bK\300\003\030`\020\275\300F\204\000\000\b\210\000\000\b\200\000\000\b@B\017\000\224\000\000\b\220\000\000\b\214\000\000\b\020\265 H\377\367\034\371\260\"\340!0 \036L\322\000\243X\211\000[\000[\b\243PcX\203CcP\200#[\004\243P\030K\031J\342P\240\"\0043\222\001\342P\377\"\026K\342P\377\367\200\377\300\"\001!R\000\243X\213C\243P\377\367\233\377\377\367\232\377\020K\003 \032h\023\000\2723\031\210\007#KC\022j\200!\233\030\000\"\332`Z`\nJ\377\367\307\372\nH\377\367\232\371\tH\377\367\323\371\020\275 \024\000\020\000\000&@\204\005\000\000\001\000\002\000\214\005\000\000\304\005\000\b\200\003\000\bD\004\000\b\340\024\000\020\220#\003J[\001\320X\003#\030@pG\300F\000\000 @\020\265\220$\377\367w\370\007Kd\001\032Y\007I\021@\007J\nC\032Q\020\"Yh\021B\374\320\377\367m\370\020\275\300F\000\000 @\374\377\000\000\001\000\372\005\370\265\220%\016Lm\001\007\000\377\367Z\370cY\006\000\333C\233\007\001\321\377\367\330\377\200#\233\000\347PcY\007J\032@\007K\023CcQ\020#bh\032B\374\3200\000\377\367G\370\370\275\300F\000\000 @\374\377\000\000\003\000\372\005\000\"C\b\213Bt\323\003\t\213B_\323\003\n\213BD\323\003\013\213B(\323\003\f\213B\r\323\377\"\t\002\022\272\003\f\213B\002\323\022\022\t\002e\320\003\013\213B\031\323\000\340\t\n\303\013\213B\001\323\313\003\300\032RA\203\013\213B\001\323\213\003\300\032RAC\013\213B\001\323K\003\300\032RA\003\013\213B\001\323\013\003\300\032RA\303\n\213B\001\323\313\002\300\032RA\203\n\213B\001\323\213\002\300\032RAC\n\213B\001\323K\002\300\032RA\003\n\213B\001\323\013\002\300\032RA\315\322\303\t\213B\001\323\313\001\300\032RA\203\t\213B\001\323\213\001\300\032RAC\t\213B\001\323K\001\300\032RA\003\t\213B\001\323\013\001\300\032RA\303\b\213B\001\323\313\000\300\032RA\203\b\213B\001\323\213\000\300\032RAC\b\213B\001\323K\000\300\032RAA\032\000\322\001FRA\020FpG\377\347\001\265\000 \000\360\006\370\002\275\300F\000)\367\320v\347pGpG\300F\000+\021\321\000*\017\321\000)\000\321\000(\002\320\000!\311C\b\034\007\264\002H\002\241@\030\002\220\003\275\300F\331\377\377\377\003\264hF\001\265\002\230\000\3600\370\001\233\236F\002\260\f\274pG\300F\360\265\316FGF\025\004-\f.\000\200\265\007\004\024\f?\f\231F\003\f~C]CgCcC\177\0314\f\344\031\234F\245B\003\331\200#[\002\230F\304DKFCCQC%\f6\004eD6\f$\004\244\031[\031Y\030 \000\f\274\220F\231F\360\275\360\265OFFF\326F\300\265\004\000\202\260\r\000\221F\230F\213B/\330,\320AFHF\000\360\317\370)\000\006\000 \000\000\360\312\3703\032\234F ;\232F\000\325v\340KFRF\223@\037\000KFbF\223@\036\000\257B(\330%\320SF\244\033\275A\000+\000\332{\340\000\"\000#\000\222\001\223\001#RF\223@\001\223\001#bF\223@\000\223\030\340\202B\320\331\000\"\000#\000\222\001\223\n\233\000+\001\320\034`]`\000\230\001\231\002\260\034\274\220F\231F\242F\360\275\243B\327\331\000\"\000#\000\222\001\223cF\000+\351\320\373\007\230FAFr\b\nC{\bfF\016\340\253B\001\321\242B\f\330\244\032\235A\001 $\031mA\000!\001>$\030MA\000.\006\320\253B\356\331\001>$\031mA\000.\370\321\000\230\001\231SF\000\031iA\000+#\333+\000RF\323@*\000dF\342@\034\000SF\025\000\000+-\333&\000WF\276@3\000&\000gF\276@2\000\200\032\231A\000\220\001\221\254\347bF #\233\032JF\332@aF\023\000BF\212@\027\000\037C\200\347bF #\233\032*\000fF\232@#\000\363@\023C\324\347bF #\000!\233\032\000\"\000\221\001\222\001\"\332@\001\222\200\347 #bF&\000\233\032\336@/\000\260FfF\267@FF;\0003C\310\347\300F\034!\001#\033\004\230B\001\323\000\f\0209\033\n\230B\001\323\000\n\b9\033\t\230B\001\323\000\t\0049\002\242\020\\@\030pG\300F\004\003\002\002\001\001\001\001\000\000\000\000\000\000\000\000\020\265\000)\003\321\377\367\335\377 0\002\340\b\034\377\367\330\377\020\275\300F\003\000\022\030\223B\000\321pG\031p\0013\371\347\370\265\300F\370\274\b\274\236FpG\370\265\300F\370\274\b\274\236FpG\001\264\002H\204F\001\274`G\000\277a\002\000\b\000\000 @\000\000$@\000\000\000@\000\000\000\000\000\000#@\000\0000@\000\0001@\000\000\237@\000\000\"@\000\000\020@\000\000\235@     \020\020\020\020\035\035\200\027\000u\000\377\003\006\002\006\0006\004\020 \000\000\177\300\000\000\000\004\000\000\000\000\000\000\000\0312Kd}\000\000\000\000\000\200@\000\b\013\020\000\000\000\000\000\377\001 \002\000\037\000\200\000\004\377\b\020\030\000\020\000\024\000\030\000\034@DHLP\000\000\000\b\020\000\000\b\000\000\000\004\000\000\000\004\020\000\000\000\022\000\000\004!\000\000\000!\000\000\000\026\000\000@\021@\002\304\023\000\023\200\023\240\023@\023\210\023\250\023 \000\034\000\000\000\003\000\000\000\001\000\000\000\001\000\000\000\000\000\000\000\005\003`\000\004\000\000\000\001\000\000\000\000\000\000\000\001\000\000\000\006\004`\000\b\000\000\000\244\005\000\b\245\016\000\020\000\000\000\000\370\374\377\177\001\000\000\000\000\000\000\020\000\000\000\b\200\000\000\000@\025\000\020\200\000\000\b\370\002\000\000\260\003\000\b\030\002\000\000\000\t=\000\000\022z\000\000\t=\000\000\000\320\007\240\017\000\000\004\000\000\000\251\000\000\020\201\000\000\020\200\2620\265\300\000 \320\020K\007\"\034h#\000\2723\033\210ZC#j\323\030\031h\000)\374\332>!\013K\006%\031`\nK\013I\031`\243!\nK\311\000]P\nIXPXX j\022\030\000 P`ZX\000*\374\3320\275\304\005\000\b\004\001&@\b\001&@\036\037\000\000\000\000&@\034\005\000\000\020\265Cx\377+\021\321\000\360\354\370\004\000\003 \000\360\370\370\303hZh\001#\021h\031C\021`\021h\031B\374\321 \000\000\360\f\371\020\275\367\265\000\220\000 \001\221\000\360\345\370?M\006\000+h\032\000P3\2742\024h\033x\004\031\000+Z\320\000\360\340\370\007\000\003(\033\320\000\360\303\3707J7K\005\000\323X\000+>\3326J\001!0\000\000\360\360\370\000(7\321\001\230\377\367\217\377\000\233\000+>\320#h\000+\374\333\000\360\263\370\004\000+\340\006 \000\360\266\370+h\2743\033h\300\030\003h\000+\002\332(L \000\376\275\000 \000\360\271\370&K\230B\366\320\000#%J\031\000\022h\001 \000\360\267\370\000%\250B\354\321\000 \000\360\251\370\036J\037K\220B\003\320\235B\343\320\0015\364\347\235B\271\321\336\347\027L\003/\005\321\001!\000 \000\360\267\370\000(\371\321(\000\000\360\242\370\322\347\025L\361\347\000\360m\370\016J\005\000\001!0\000\000\360\237\370\000(\t\321\000\233\000+\b\320#h\000+\374\333\000\360e\370\004\000\345\347\006L\343\347\tL\341\347\300F\304\005\000\b\000\000&@\034\005\000\000\314\003\000\b\005\000R\000\001\001\210\000\334\003\000\b\360I\002\000\001\000P\000\030K\367\265\033h\030J\\h\004#\021i\013C\023a\001($\3200\277#\000\3743\033i\000+\035\321\243 \021K\022I\022J\300\000\017h\036X\025h\001\225\020M\r`\006%\035P> \020`\016H>5\035P\035X\000-\374\332\fH\3744 a\017`\243!\311\000^P\001\233\023`\367\275 \277\331\347\304\005\000\b\000\355\000\340\000\000&@\b\001&@\004\001&@\036\037\000\000\034\005\000\000\252\252\252\252\000\000\000\000\001\264\002H\204F\001\274`G\000\277\333\000\000\020\001\264\002H\204F\001\274`G\000\2779\002\000\020\001\264\002H\204F\001\274`G\000\277u\001\000\020\001\264\002H\204F\001\274`G\000\277\321\017\000\020\001\264\002H\204F\001\274`G\000\277\351\005\000\020\001\264\002H\204F\001\274`G\000\277\271\003\000\020\001\264\002H\204F\001\274`G\000\277\343\000\000\020\001\264\002H\204F\001\274`G\000\277\235\002\000\020\001\264\002H\204F\001\274`G\000\277u\005\000\020\000\000\000\000\000\000\000\000\000\000\000\000\000\000\000\000\000\000\000\000\000\000\000"
	.size	CM0_BOOT, 6224

	.section	.rodata..L__unnamed_1,"a",%progbits
.Lsec_end0:
	.section	.rodata._ZN16psoc6_helloworld18aes_using_1d_array4sbox17ha99de1698463ff0aE,"a",%progbits
.Lsec_end1:
	.section	.rodata._ZN16psoc6_helloworld18aes_using_1d_array4Rcon17h1877f2e39af14f55E,"a",%progbits
.Lsec_end2:
	.section	.cm0boot,"a",%progbits
.Lsec_end3:
	.section	".text._ZN42_$LT$$RF$T$u20$as$u20$core..fmt..Debug$GT$3fmt17ha4d47d0b029dff35E","ax",%progbits
.Lsec_end4:
	.section	".text._ZN4core3ptr49drop_in_place$LT$$RF$$u5b$u8$u3b$$u20$16$u5d$$GT$17h416a91502b9c335cE","ax",%progbits
.Lsec_end5:
	.section	.text.unlikely._ZN4core9panicking13assert_failed17h2a1ca2431ab258ddE,"ax",%progbits
.Lsec_end6:
	.section	.text._ZN16psoc6_helloworld18aes_using_1d_array3AES13add_round_key17ha08b8a7f84d8470bE,"ax",%progbits
.Lsec_end7:
	.section	.text._ZN16psoc6_helloworld18aes_using_1d_array3AES10shift_rows17h3d725cef8c484a6eE,"ax",%progbits
.Lsec_end8:
	.section	.text.main,"ax",%progbits
.Lsec_end9:
	.section	.text._ZN16psoc6_helloworld18__cortex_m_rt_main17h29c983ff66e9eadeE,"ax",%progbits
.Lsec_end10:
	.section	".note.GNU-stack","",%progbits
	.eabi_attribute	30, 3