	.text
	.syntax unified
	.eabi_attribute	67, "2.09"
	.eabi_attribute	6, 13
	.eabi_attribute	7, 77
	.eabi_attribute	8, 0
	.eabi_attribute	9, 2
	.eabi_attribute	34, 1
	.eabi_attribute	17, 1
	.eabi_attribute	20, 1
	.eabi_attribute	21, 0
	.eabi_attribute	23, 3
	.eabi_attribute	24, 1
	.eabi_attribute	25, 1
	.eabi_attribute	38, 1
	.eabi_attribute	14, 0
	.file	"p9c2cqq1zqzinrk"
	.file	1 "C:\\Users\\KumarAnkita\\Documents\\trying_on_win\\aes_impl\\src\\aes_using_1d_array.rs"
	.file	2 "C:\\Users\\KumarAnkita\\Documents\\trying_on_win\\aes_impl\\src\\main.rs"
	.section	".text._ZN42_$LT$$RF$T$u20$as$u20$core..fmt..Debug$GT$3fmt17h28cc2c45b377c7dbE","ax",%progbits
	.p2align	1
	.type	_ZN42_$LT$$RF$T$u20$as$u20$core..fmt..Debug$GT$3fmt17h28cc2c45b377c7dbE,%function
	.code	16
	.thumb_func
_ZN42_$LT$$RF$T$u20$as$u20$core..fmt..Debug$GT$3fmt17h28cc2c45b377c7dbE:
.Lfunc_begin0:
	.file	3 "/rustc/db9d1b20bba1968c1ec1fc49616d4742c1725b4b/library/core/src/fmt\\mod.rs"
	.loc	3 2087 0
	.fnstart
	.cfi_sections .debug_frame
	.cfi_startproc
	.save	{r4, r5, r7, lr}
	push	{r4, r5, r7, lr}
	.cfi_def_cfa_offset 16
	.cfi_offset lr, -4
	.cfi_offset r7, -8
	.cfi_offset r5, -12
	.cfi_offset r4, -16
	.setfp	r7, sp, #8
	add	r7, sp, #8
	.cfi_def_cfa r7, 8
.Ltmp0:
	.loc	3 2087 71 prologue_end
	ldr	r5, [r0]
.Ltmp1:
	.file	4 "/rustc/db9d1b20bba1968c1ec1fc49616d4742c1725b4b/library/core/src/fmt\\num.rs"
	.loc	4 186 20
	mov	r0, r1
.Ltmp2:
	.loc	4 0 20 is_stmt 0
	mov	r4, r1
.Ltmp3:
	.loc	4 186 20
	bl	_ZN4core3fmt9Formatter15debug_lower_hex17h5dcf38f8882c06f6E
	cbz	r0, .LBB0_2
.Ltmp4:
	.loc	4 187 21 is_stmt 1
	mov	r0, r5
	mov	r1, r4
	pop.w	{r4, r5, r7, lr}
.Ltmp5:
	b	_ZN4core3fmt3num52_$LT$impl$u20$core..fmt..LowerHex$u20$for$u20$u8$GT$3fmt17hc8b82f0cf68099a7E
.Ltmp6:
.LBB0_2:
	.loc	4 188 27
	mov	r0, r4
	bl	_ZN4core3fmt9Formatter15debug_upper_hex17hd681e72d6ac94a7bE
	cbz	r0, .LBB0_4
.Ltmp7:
	.loc	4 189 21
	mov	r0, r5
	mov	r1, r4
	pop.w	{r4, r5, r7, lr}
.Ltmp8:
	b	_ZN4core3fmt3num52_$LT$impl$u20$core..fmt..UpperHex$u20$for$u20$u8$GT$3fmt17haae0f5b12789fcdcE
.Ltmp9:
.LBB0_4:
	.loc	4 191 21
	mov	r0, r5
	mov	r1, r4
	pop.w	{r4, r5, r7, lr}
.Ltmp10:
	b	_ZN4core3fmt3num3imp51_$LT$impl$u20$core..fmt..Display$u20$for$u20$u8$GT$3fmt17hb97f478befa85bdeE
.Ltmp11:
.Lfunc_end0:
	.size	_ZN42_$LT$$RF$T$u20$as$u20$core..fmt..Debug$GT$3fmt17h28cc2c45b377c7dbE, .Lfunc_end0-_ZN42_$LT$$RF$T$u20$as$u20$core..fmt..Debug$GT$3fmt17h28cc2c45b377c7dbE
	.cfi_endproc
	.cantunwind
	.fnend

	.section	".text._ZN42_$LT$$RF$T$u20$as$u20$core..fmt..Debug$GT$3fmt17h9e48b0bb1f39d125E","ax",%progbits
	.p2align	1
	.type	_ZN42_$LT$$RF$T$u20$as$u20$core..fmt..Debug$GT$3fmt17h9e48b0bb1f39d125E,%function
	.code	16
	.thumb_func
_ZN42_$LT$$RF$T$u20$as$u20$core..fmt..Debug$GT$3fmt17h9e48b0bb1f39d125E:
.Lfunc_begin1:
	.loc	3 2087 0
	.fnstart
	.cfi_startproc
	.save	{r4, r5, r6, r7, lr}
	push	{r4, r5, r6, r7, lr}
	.cfi_def_cfa_offset 20
	.cfi_offset lr, -4
	.cfi_offset r7, -8
	.cfi_offset r6, -12
	.cfi_offset r5, -16
	.cfi_offset r4, -20
	.setfp	r7, sp, #12
	add	r7, sp, #12
	.cfi_def_cfa r7, 8
	.save	{r8}
	str	r8, [sp, #-4]!
	.cfi_offset r8, -24
	.pad	#16
	sub	sp, #16
.Ltmp12:
	.loc	3 2087 71 prologue_end
	ldr	r5, [r0]
.Ltmp13:
	.loc	3 2284 9
	mov	r0, r1
.Ltmp14:
	bl	_ZN4core3fmt9Formatter10debug_list17h6b194937b86a3a4bE
.Ltmp15:
	.file	5 "/rustc/db9d1b20bba1968c1ec1fc49616d4742c1725b4b/library/core/src/fmt\\builders.rs"
	.loc	5 643 13
	movw	r6, :lower16:.L__unnamed_1
	add.w	r8, sp, #12
	movt	r6, :upper16:.L__unnamed_1
	mov	r4, sp
.Ltmp16:
	.loc	3 2284 9
	strd	r0, r1, [sp]
.Ltmp17:
	.loc	5 643 13
	mov	r0, r4
	mov	r1, r8
	mov	r2, r6
.Ltmp18:
	.loc	5 642 13
	str	r5, [sp, #12]
.Ltmp19:
	.loc	5 643 13
	bl	_ZN4core3fmt8builders9DebugList5entry17hd9cf0a8122a257feE
.Ltmp20:
	.file	6 "/rustc/db9d1b20bba1968c1ec1fc49616d4742c1725b4b/library/core/src/ptr\\mut_ptr.rs"
	.loc	6 242 18
	adds	r0, r5, #1
.Ltmp21:
	.loc	5 642 13
	str	r0, [sp, #12]
.Ltmp22:
	.loc	5 643 13
	mov	r0, r4
.Ltmp23:
	mov	r1, r8
	mov	r2, r6
	bl	_ZN4core3fmt8builders9DebugList5entry17hd9cf0a8122a257feE
.Ltmp24:
	.loc	6 242 18
	adds	r0, r5, #2
.Ltmp25:
	.loc	5 642 13
	str	r0, [sp, #12]
.Ltmp26:
	.loc	5 643 13
	mov	r0, r4
.Ltmp27:
	mov	r1, r8
	mov	r2, r6
	bl	_ZN4core3fmt8builders9DebugList5entry17hd9cf0a8122a257feE
.Ltmp28:
	.loc	6 242 18
	adds	r0, r5, #3
.Ltmp29:
	.loc	5 642 13
	str	r0, [sp, #12]
.Ltmp30:
	.loc	5 643 13
	mov	r0, r4
.Ltmp31:
	mov	r1, r8
	mov	r2, r6
	bl	_ZN4core3fmt8builders9DebugList5entry17hd9cf0a8122a257feE
.Ltmp32:
	.loc	6 242 18
	adds	r0, r5, #4
.Ltmp33:
	.loc	5 642 13
	str	r0, [sp, #12]
.Ltmp34:
	.loc	5 643 13
	mov	r0, r4
.Ltmp35:
	mov	r1, r8
	mov	r2, r6
	bl	_ZN4core3fmt8builders9DebugList5entry17hd9cf0a8122a257feE
.Ltmp36:
	.loc	6 242 18
	adds	r0, r5, #5
.Ltmp37:
	.loc	5 642 13
	str	r0, [sp, #12]
.Ltmp38:
	.loc	5 643 13
	mov	r0, r4
.Ltmp39:
	mov	r1, r8
	mov	r2, r6
	bl	_ZN4core3fmt8builders9DebugList5entry17hd9cf0a8122a257feE
.Ltmp40:
	.loc	6 242 18
	adds	r0, r5, #6
.Ltmp41:
	.loc	5 642 13
	str	r0, [sp, #12]
.Ltmp42:
	.loc	5 643 13
	mov	r0, r4
.Ltmp43:
	mov	r1, r8
	mov	r2, r6
	bl	_ZN4core3fmt8builders9DebugList5entry17hd9cf0a8122a257feE
.Ltmp44:
	.loc	6 242 18
	adds	r0, r5, #7
.Ltmp45:
	.loc	5 642 13
	str	r0, [sp, #12]
.Ltmp46:
	.loc	5 643 13
	mov	r0, r4
.Ltmp47:
	mov	r1, r8
	mov	r2, r6
	bl	_ZN4core3fmt8builders9DebugList5entry17hd9cf0a8122a257feE
.Ltmp48:
	.loc	6 242 18
	add.w	r0, r5, #8
.Ltmp49:
	.loc	5 642 13
	str	r0, [sp, #12]
.Ltmp50:
	.loc	5 643 13
	mov	r0, r4
.Ltmp51:
	mov	r1, r8
	mov	r2, r6
	bl	_ZN4core3fmt8builders9DebugList5entry17hd9cf0a8122a257feE
.Ltmp52:
	.loc	6 242 18
	add.w	r0, r5, #9
.Ltmp53:
	.loc	5 642 13
	str	r0, [sp, #12]
.Ltmp54:
	.loc	5 643 13
	mov	r0, r4
.Ltmp55:
	mov	r1, r8
	mov	r2, r6
	bl	_ZN4core3fmt8builders9DebugList5entry17hd9cf0a8122a257feE
.Ltmp56:
	.loc	6 242 18
	add.w	r0, r5, #10
.Ltmp57:
	.loc	5 642 13
	str	r0, [sp, #12]
.Ltmp58:
	.loc	5 643 13
	mov	r0, r4
.Ltmp59:
	mov	r1, r8
	mov	r2, r6
	bl	_ZN4core3fmt8builders9DebugList5entry17hd9cf0a8122a257feE
.Ltmp60:
	.loc	6 242 18
	add.w	r0, r5, #11
.Ltmp61:
	.loc	5 642 13
	str	r0, [sp, #12]
.Ltmp62:
	.loc	5 643 13
	mov	r0, r4
.Ltmp63:
	mov	r1, r8
	mov	r2, r6
	bl	_ZN4core3fmt8builders9DebugList5entry17hd9cf0a8122a257feE
.Ltmp64:
	.loc	6 242 18
	add.w	r0, r5, #12
.Ltmp65:
	.loc	5 642 13
	str	r0, [sp, #12]
.Ltmp66:
	.loc	5 643 13
	mov	r0, r4
.Ltmp67:
	mov	r1, r8
	mov	r2, r6
	bl	_ZN4core3fmt8builders9DebugList5entry17hd9cf0a8122a257feE
.Ltmp68:
	.loc	6 242 18
	add.w	r0, r5, #13
.Ltmp69:
	.loc	5 642 13
	str	r0, [sp, #12]
.Ltmp70:
	.loc	5 643 13
	mov	r0, r4
.Ltmp71:
	mov	r1, r8
	mov	r2, r6
	bl	_ZN4core3fmt8builders9DebugList5entry17hd9cf0a8122a257feE
.Ltmp72:
	.loc	6 242 18
	add.w	r0, r5, #14
.Ltmp73:
	.loc	5 642 13
	str	r0, [sp, #12]
.Ltmp74:
	.loc	5 643 13
	mov	r0, r4
.Ltmp75:
	mov	r1, r8
	mov	r2, r6
	bl	_ZN4core3fmt8builders9DebugList5entry17hd9cf0a8122a257feE
.Ltmp76:
	.loc	6 242 18
	add.w	r0, r5, #15
.Ltmp77:
	.loc	5 642 13
	str	r0, [sp, #12]
.Ltmp78:
	.loc	5 643 13
	mov	r0, r4
.Ltmp79:
	mov	r1, r8
	mov	r2, r6
	bl	_ZN4core3fmt8builders9DebugList5entry17hd9cf0a8122a257feE
.Ltmp80:
	.loc	3 2284 9
	mov	r0, r4
	bl	_ZN4core3fmt8builders9DebugList6finish17h896e994731ebc79eE
.Ltmp81:
	.loc	3 2087 84
	add	sp, #16
.Ltmp82:
	ldr	r8, [sp], #4
	pop	{r4, r5, r6, r7, pc}
.Ltmp83:
.Lfunc_end1:
	.size	_ZN42_$LT$$RF$T$u20$as$u20$core..fmt..Debug$GT$3fmt17h9e48b0bb1f39d125E, .Lfunc_end1-_ZN42_$LT$$RF$T$u20$as$u20$core..fmt..Debug$GT$3fmt17h9e48b0bb1f39d125E
	.cfi_endproc
	.file	7 "/rustc/db9d1b20bba1968c1ec1fc49616d4742c1725b4b/library/core/src/array\\mod.rs"
	.file	8 "/rustc/db9d1b20bba1968c1ec1fc49616d4742c1725b4b/library/core/src/slice/iter\\macros.rs"
	.cantunwind
	.fnend

	.section	".text._ZN4core3ptr27drop_in_place$LT$$RF$u8$GT$17hb7f49a1b0a1fbfa8E","ax",%progbits
	.p2align	1
	.type	_ZN4core3ptr27drop_in_place$LT$$RF$u8$GT$17hb7f49a1b0a1fbfa8E,%function
	.code	16
	.thumb_func
_ZN4core3ptr27drop_in_place$LT$$RF$u8$GT$17hb7f49a1b0a1fbfa8E:
.Lfunc_begin2:
	.file	9 "/rustc/db9d1b20bba1968c1ec1fc49616d4742c1725b4b/library/core/src/ptr\\mod.rs"
	.loc	9 188 0
	.fnstart
	.cfi_startproc
	.loc	9 188 1 prologue_end
	bx	lr
.Ltmp84:
.Lfunc_end2:
	.size	_ZN4core3ptr27drop_in_place$LT$$RF$u8$GT$17hb7f49a1b0a1fbfa8E, .Lfunc_end2-_ZN4core3ptr27drop_in_place$LT$$RF$u8$GT$17hb7f49a1b0a1fbfa8E
	.cfi_endproc
	.cantunwind
	.fnend

	.section	.text.unlikely._ZN4core9panicking13assert_failed17h50ed13967c67fe2fE,"ax",%progbits
	.p2align	1
	.type	_ZN4core9panicking13assert_failed17h50ed13967c67fe2fE,%function
	.code	16
	.thumb_func
_ZN4core9panicking13assert_failed17h50ed13967c67fe2fE:
.Lfunc_begin3:
	.file	10 "/rustc/db9d1b20bba1968c1ec1fc49616d4742c1725b4b/library/core/src\\panicking.rs"
	.loc	10 135 0
	.fnstart
	.cfi_startproc
	.save	{r7, lr}
	push	{r7, lr}
	.cfi_def_cfa_offset 8
	.cfi_offset lr, -4
	.cfi_offset r7, -8
	.setfp	r7, sp
	mov	r7, sp
	.cfi_def_cfa_register r7
	.pad	#48
	sub	sp, #48
	strd	r0, r1, [sp, #16]
	add.w	r12, sp, #24
.Ltmp85:
	.loc	10 145 46 prologue_end
	ldm.w	r2, {r0, r3, r4, r5, r6, lr}
.Ltmp86:
	.loc	10 145 5 is_stmt 0
	movw	r2, :lower16:.L__unnamed_2
.Ltmp87:
	.loc	10 145 46
	mov	r1, r12
.Ltmp88:
	.loc	10 145 5
	movt	r2, :upper16:.L__unnamed_2
	.loc	10 145 46
	stm.w	r1, {r0, r3, r4, r5, r6, lr}
.Ltmp89:
	.loc	10 145 5
	movw	r0, :lower16:.L__unnamed_3
	movt	r0, :upper16:.L__unnamed_3
	add	r1, sp, #16
	add	r3, sp, #20
	str	r0, [sp, #8]
	movs	r0, #0
	strd	r2, r12, [sp]
	bl	_ZN4core9panicking19assert_failed_inner17hf111e574873d4158E
	.inst.n	0xdefe
.Ltmp90:
.Lfunc_end3:
	.size	_ZN4core9panicking13assert_failed17h50ed13967c67fe2fE, .Lfunc_end3-_ZN4core9panicking13assert_failed17h50ed13967c67fe2fE
	.cfi_endproc
	.cantunwind
	.fnend

	.section	.text.main,"ax",%progbits
	.globl	main
	.p2align	1
	.type	main,%function
	.code	16
	.thumb_func
main:
.Lfunc_begin4:
	.loc	2 80 0 is_stmt 1
	.fnstart
	.cfi_startproc
	.save	{r7, lr}
	push	{r7, lr}
	.cfi_def_cfa_offset 8
	.cfi_offset lr, -4
	.cfi_offset r7, -8
	.setfp	r7, sp
	mov	r7, sp
	.cfi_def_cfa_register r7
.Ltmp91:
	.loc	2 80 1 prologue_end
	bl	_ZN16psoc6_helloworld18__cortex_m_rt_main17h98f636c1ca0ff03cE
	.inst.n	0xdefe
.Ltmp92:
.Lfunc_end4:
	.size	main, .Lfunc_end4-main
	.cfi_endproc
	.cantunwind
	.fnend

	.section	.text._ZN16psoc6_helloworld18__cortex_m_rt_main17h98f636c1ca0ff03cE,"ax",%progbits
	.p2align	1
	.type	_ZN16psoc6_helloworld18__cortex_m_rt_main17h98f636c1ca0ff03cE,%function
	.code	16
	.thumb_func
_ZN16psoc6_helloworld18__cortex_m_rt_main17h98f636c1ca0ff03cE:
.Lfunc_begin5:
	.loc	2 81 0
	.fnstart
	.cfi_startproc
	.save	{r7, lr}
	push	{r7, lr}
	.cfi_def_cfa_offset 8
	.cfi_offset lr, -4
	.cfi_offset r7, -8
	.setfp	r7, sp
	mov	r7, sp
	.cfi_def_cfa_register r7
	.pad	#368
	sub	sp, #368
	movw	r0, #798
	movw	r1, #11694
	movw	r2, #47006
	movw	r3, #44869
	movt	r0, #40108
.Ltmp93:
	.file	11 "/rustc/db9d1b20bba1968c1ec1fc49616d4742c1725b4b/library/core/src\\intrinsics.rs"
	.loc	11 2079 14 prologue_end
	add.w	r12, sp, #148
	add.w	r10, sp, #160
	movw	r8, #53001
	movw	r5, #63403
	movw	r6, #44584
	movw	r4, #32299
	movt	r1, #22410
	movt	r2, #44143
	movt	r3, #20878
.Ltmp94:
	.loc	1 392 24
	str	r0, [sp, #132]
	movt	r8, #15439
.Ltmp95:
	.loc	11 2079 14
	stm.w	r12, {r0, r2, r3}
.Ltmp96:
	.loc	1 399 38
	add.w	r0, r10, #24
	movt	r5, #34837
	movt	r6, #42706
	movt	r4, #5653
.Ltmp97:
	.loc	1 392 24
	str	r1, [sp, #128]
	strd	r3, r1, [sp, #140]
.Ltmp98:
	.loc	1 399 38
	movs	r1, #160
.Ltmp99:
	.loc	1 391 23
	str.w	r8, [sp, #124]
	str	r5, [sp, #120]
	str	r6, [sp, #116]
	str	r4, [sp, #112]
.Ltmp100:
	.loc	1 392 24
	str	r2, [sp, #136]
	str	r0, [sp]
.Ltmp101:
	.loc	1 399 38
	bl	__aeabi_memclr4
.Ltmp102:
	.loc	1 0 38 is_stmt 0
	add	r0, sp, #112
	movw	r11, :lower16:_ZN16psoc6_helloworld18aes_using_1d_array4sbox17hed60259f3f51e0c0E
	movw	r12, :lower16:_ZN16psoc6_helloworld18aes_using_1d_array4Rcon17hf4ab9f7f6fc00789E
	.loc	1 398 22 is_stmt 1
	str	r0, [sp, #164]
	add	r0, sp, #144
	str	r0, [sp, #160]
.Ltmp103:
	.loc	1 94 13
	strd	r5, r8, [sp, #176]
.Ltmp104:
	.loc	1 0 13 is_stmt 0
	movs	r0, #0
	.loc	1 94 13
	strd	r4, r6, [sp, #168]
	movt	r11, :upper16:_ZN16psoc6_helloworld18aes_using_1d_array4sbox17hed60259f3f51e0c0E
	movt	r12, :upper16:_ZN16psoc6_helloworld18aes_using_1d_array4Rcon17hf4ab9f7f6fc00789E
	b	.LBB5_3
.Ltmp105:
.LBB5_1:
	.loc	1 133 43 is_stmt 1
	ubfx	r1, r1, #2, #6
.Ltmp106:
	.loc	1 68 5
	ldrb.w	r3, [r11, r3]
.Ltmp107:
	.loc	1 68 5 is_stmt 0
	ldrb.w	lr, [r11, r10]
.Ltmp108:
	.loc	1 133 38 is_stmt 1
	ldrb.w	r1, [r12, r1]
.Ltmp109:
	.loc	1 68 5
	ldrb.w	r8, [r11, r6]
.Ltmp110:
	.loc	1 133 15
	eor.w	r9, r1, r3
.Ltmp111:
	.loc	1 68 5
	ldrb.w	r3, [r11, r5]
.Ltmp112:
.LBB5_2:
	.loc	1 146 51
	ldrb	r5, [r2, #9]
.Ltmp113:
	.file	12 "/rustc/db9d1b20bba1968c1ec1fc49616d4742c1725b4b/library/core/src\\cmp.rs"
	.loc	12 1327 52
	adds	r0, #2
.Ltmp114:
	.loc	1 147 51
	ldrb	r6, [r2, #10]
	add.w	r10, sp, #160
	.loc	1 145 51
	ldrb	r4, [r2, #8]
	.loc	1 146 13
	eors	r3, r5
	.loc	1 147 13
	eor.w	r5, r6, r8
	.loc	1 145 51
	ldrb	r6, [r2, #12]
	.loc	1 145 13 is_stmt 0
	eor.w	r4, r4, r9
	.loc	1 146 13 is_stmt 1
	strb	r3, [r2, #25]
	.loc	1 145 13
	eors	r6, r4
	strb	r6, [r2, #28]
	.loc	1 146 51
	ldrb	r6, [r2, #13]
.Ltmp115:
	.file	13 "/rustc/db9d1b20bba1968c1ec1fc49616d4742c1725b4b/library/core/src/iter\\range.rs"
	.loc	13 621 12
	cmp	r0, #40
.Ltmp116:
	.loc	1 148 51
	ldrb	r1, [r2, #11]
	.loc	1 146 13
	eor.w	r3, r3, r6
	strb	r3, [r2, #29]
	.loc	1 147 51
	ldrb	r3, [r2, #14]
	.loc	1 148 13
	eor.w	r1, r1, lr
	.loc	1 145 13
	strb	r4, [r2, #24]
	.loc	1 147 13
	eor.w	r3, r3, r5
	strb	r3, [r2, #30]
	.loc	1 148 51
	ldrb	r3, [r2, #15]
	.loc	1 148 13 is_stmt 0
	strb	r1, [r2, #27]
.Ltmp117:
	eor.w	r1, r1, r3
	.loc	1 147 13 is_stmt 1
	strb	r5, [r2, #26]
	.loc	1 148 13
	strb	r1, [r2, #31]
.Ltmp118:
	.loc	13 621 12
	beq	.LBB5_5
.Ltmp119:
.LBB5_3:
	.loc	1 106 33
	add.w	r2, r10, r0, lsl #2
	adds	r1, r0, #4
.Ltmp120:
	ldrb.w	r10, [r2, #20]
.Ltmp121:
	.loc	1 108 16
	lsls	r4, r1, #30
.Ltmp122:
	.loc	1 106 33
	ldrb	r3, [r2, #21]
.Ltmp123:
	ldrb	r5, [r2, #22]
.Ltmp124:
	ldrb	r6, [r2, #23]
.Ltmp125:
	.loc	1 108 16
	bpl	.LBB5_1
.Ltmp126:
	.loc	1 0 16 is_stmt 0
	mov	lr, r6
	mov	r8, r5
	mov	r9, r10
	b	.LBB5_2
.Ltmp127:
.LBB5_5:
	.loc	1 159 48 is_stmt 1
	ldrb.w	r0, [sp, #183]
	.loc	1 159 21 is_stmt 0
	ldrb.w	r1, [sp, #159]
	ldrb.w	r2, [sp, #157]
	eors	r0, r1
.Ltmp128:
	.loc	1 159 48
	str	r0, [sp, #68]
	ldrb.w	r0, [sp, #182]
	.loc	1 159 21
	ldrb.w	r1, [sp, #158]
	.loc	1 159 48
	ldrb.w	r6, [sp, #175]
	.loc	1 159 21
	eors	r1, r0
.Ltmp129:
	.loc	1 159 48
	ldrb.w	r0, [sp, #181]
	.loc	1 159 21
	ldrb.w	r5, [sp, #151]
	eors	r0, r2
.Ltmp130:
	.loc	1 159 48
	str	r0, [sp, #72]
	ldrb.w	r0, [sp, #180]
	.loc	1 159 21
	eors	r6, r5
	ldrb.w	r2, [sp, #156]
	str	r6, [sp, #88]
	eor.w	r9, r2, r0
.Ltmp131:
	.loc	1 159 48
	ldrb.w	r0, [sp, #179]
	.loc	1 159 21
	ldrb.w	r2, [sp, #155]
	.loc	1 159 48
	ldrb.w	r3, [sp, #174]
.Ltmp132:
	.loc	1 159 21
	eors	r0, r2
.Ltmp133:
	.loc	1 159 48
	str	r0, [sp, #104]
	ldrb.w	r0, [sp, #178]
	.loc	1 159 21
	ldrb.w	r2, [sp, #154]
	ldrb.w	r6, [sp, #150]
	eors	r0, r2
.Ltmp134:
	.loc	1 159 48
	str	r0, [sp, #96]
	ldrb.w	r0, [sp, #177]
	.loc	1 159 21
	eor.w	r8, r6, r3
	ldrb.w	r2, [sp, #153]
	ldrb.w	r3, [sp, #149]
	eors	r0, r2
.Ltmp135:
	.loc	1 159 48
	str	r0, [sp, #92]
	ldrb.w	r0, [sp, #176]
	.loc	1 159 21
	ldrb.w	r2, [sp, #152]
	ldrb.w	r5, [sp, #147]
	eors	r0, r2
.Ltmp136:
	.loc	1 159 48
	ldrb.w	r2, [sp, #173]
.Ltmp137:
	str	r0, [sp, #80]
	.loc	1 159 21
	eors	r2, r3
	str	r2, [sp, #76]
	.loc	1 159 48
	ldrb.w	r0, [sp, #172]
.Ltmp138:
	.loc	1 159 21
	eor	r3, r5, #22
	ldrb.w	r2, [sp, #148]
	ldrb.w	r6, [sp, #146]
.Ltmp139:
	eors	r0, r2
	str	r0, [sp, #84]
	ldrb.w	r2, [sp, #145]
.Ltmp140:
	ldrb.w	r0, [sp, #144]
.Ltmp141:
	str	r3, [sp, #100]
	eor	r3, r6, #21
	eor	r12, r2, #126
	eor	r6, r0, #43
	movs	r2, #0
	str	r3, [sp, #64]
.Ltmp142:
.LBB5_6:
	.loc	1 68 10 is_stmt 1
	ldr	r0, [sp, #104]
.Ltmp143:
	uxtb	r1, r1
	str	r2, [sp, #108]
	uxtb	r0, r0
.Ltmp144:
	.loc	1 68 5 is_stmt 0
	ldrb.w	r4, [r11, r0]
.Ltmp145:
	.loc	1 68 10
	uxtb.w	r0, r9
	.loc	1 68 5
	ldrb.w	r3, [r11, r0]
	.loc	1 68 10
	uxtb.w	r0, r12
.Ltmp146:
	.loc	1 68 5
	ldrb.w	r0, [r11, r0]
	mov.w	r9, #27
.Ltmp147:
	.loc	1 241 17 is_stmt 1
	str	r3, [sp, #104]
	eor.w	r5, r3, r4
.Ltmp148:
	.loc	1 231 23
	str	r0, [sp, #4]
.Ltmp149:
	eor.w	lr, r3, r0
.Ltmp150:
	.loc	1 68 10
	uxtb.w	r3, r8
.Ltmp151:
	.loc	1 68 5 is_stmt 0
	ldrb.w	r12, [r11, r3]
.Ltmp152:
	.loc	1 159 48 is_stmt 1
	add.w	r8, r10, r2
.Ltmp153:
	.loc	1 231 23
	eor.w	r0, lr, r12
	.loc	1 243 38
	str	r0, [sp, #40]
	eor.w	r3, r0, r5, lsl #1
	.loc	1 241 17
	sxtb	r5, r5
.Ltmp154:
	.loc	1 219 29
	and.w	r5, r9, r5, lsr #7
.Ltmp155:
	.loc	1 243 17
	eors	r3, r5
.Ltmp156:
	.loc	1 159 48
	ldrb.w	r5, [r8, #39]
	.loc	1 159 21 is_stmt 0
	eor.w	r0, r3, r5
.Ltmp157:
	.loc	1 238 17 is_stmt 1
	eor.w	r3, r4, r12
.Ltmp158:
	.loc	1 219 20
	eor.w	r5, lr, r4
.Ltmp159:
	.loc	1 238 17
	str	r0, [sp, #60]
	.loc	1 240 38
	eor.w	r5, r5, r3, lsl #1
	.loc	1 238 17
	sxtb	r3, r3
.Ltmp160:
	.loc	1 219 29
	and.w	r3, r9, r3, lsr #7
.Ltmp161:
	.loc	1 240 17
	eors	r3, r5
.Ltmp162:
	.loc	1 159 48
	ldrb.w	r5, [r8, #38]
	.loc	1 159 21 is_stmt 0
	eor.w	r0, r3, r5
.Ltmp163:
	.loc	1 68 10 is_stmt 1
	str	r0, [sp, #56]
	ldr	r0, [sp, #100]
.Ltmp164:
	uxtb	r3, r0
.Ltmp165:
	.loc	1 68 5 is_stmt 0
	ldrb.w	r0, [r11, r1]
.Ltmp166:
	ldrb.w	r2, [r11, r3]
.Ltmp167:
	.loc	1 238 17 is_stmt 1
	str	r0, [sp, #32]
.Ltmp168:
	.loc	1 68 10
	str	r2, [sp, #20]
.Ltmp169:
	.loc	1 238 17
	eor.w	r1, r0, r2
.Ltmp170:
	.loc	1 68 10
	ldr	r0, [sp, #84]
.Ltmp171:
	uxtb	r3, r0
.Ltmp172:
	ldr	r0, [sp, #92]
.Ltmp173:
	.loc	1 68 5 is_stmt 0
	ldrb.w	r5, [r11, r3]
.Ltmp174:
	.loc	1 68 10
	uxtb	r3, r0
	str	r5, [sp, #24]
	.loc	1 68 5
	ldrb.w	r0, [r11, r3]
.Ltmp175:
	.loc	1 231 23 is_stmt 1
	str	r0, [sp, #48]
.Ltmp176:
	eors	r0, r5
	str	r0, [sp, #84]
.Ltmp177:
	.loc	1 219 20
	eor.w	r10, r0, r2
.Ltmp178:
	.loc	1 159 48
	ldrb.w	r5, [r8, #28]
.Ltmp179:
	.loc	1 240 38
	eor.w	r2, r10, r1, lsl #1
	.loc	1 238 17
	sxtb	r1, r1
.Ltmp180:
	.loc	1 219 29
	and.w	r1, r9, r1, lsr #7
.Ltmp181:
	.loc	1 159 21
	str	r5, [sp, #12]
.Ltmp182:
	.loc	1 240 17
	eors	r1, r2
.Ltmp183:
	.loc	1 159 48
	ldrb.w	r2, [r8, #30]
	ldrb.w	r5, [r8, #34]
	.loc	1 159 21 is_stmt 0
	eor.w	r0, r1, r2
.Ltmp184:
	.loc	1 68 10 is_stmt 1
	str	r0, [sp, #52]
	ldr	r0, [sp, #68]
.Ltmp185:
	uxtb	r1, r6
.Ltmp186:
	.loc	1 68 5 is_stmt 0
	ldrb.w	r2, [r11, r1]
.Ltmp187:
	.loc	1 68 10
	uxtb	r1, r0
	ldr	r0, [sp, #76]
.Ltmp188:
	.loc	1 68 5
	ldrb.w	r10, [r11, r1]
	mov	r1, r2
.Ltmp189:
	.loc	1 241 17 is_stmt 1
	str	r2, [sp, #36]
	eor.w	r6, r10, r2
.Ltmp190:
	.loc	1 68 10
	uxtb	r2, r0
.Ltmp191:
	.loc	1 68 5 is_stmt 0
	ldrb.w	r0, [r11, r2]
.Ltmp192:
	.loc	1 231 23 is_stmt 1
	str	r0, [sp, #68]
.Ltmp193:
	eors	r1, r0
.Ltmp194:
	.loc	1 68 10
	ldr	r0, [sp, #96]
.Ltmp195:
	.loc	1 243 38
	str	r1, [sp, #16]
.Ltmp196:
	.loc	1 68 10
	uxtb	r2, r0
.Ltmp197:
	.loc	1 68 5 is_stmt 0
	ldrb.w	r2, [r11, r2]
	str	r2, [sp, #8]
.Ltmp198:
	.loc	1 231 23 is_stmt 1
	eor.w	r0, r2, r1
.Ltmp199:
	.loc	1 0 23 is_stmt 0
	str	r0, [sp, #76]
	.loc	1 243 38 is_stmt 1
	eor.w	r0, r0, r6, lsl #1
	.loc	1 241 17
	sxtb	r6, r6
.Ltmp200:
	.loc	1 219 29
	and.w	r6, r9, r6, lsr #7
	mov	r3, r2
	mov	r2, r1
.Ltmp201:
	.loc	1 243 17
	eor.w	r1, r0, r6
.Ltmp202:
	.loc	1 159 48
	ldrb.w	r0, [r8, #25]
.Ltmp203:
	str	r0, [sp, #28]
	ldrb.w	r0, [r8, #27]
.Ltmp204:
	ldrb.w	r6, [r8, #26]
.Ltmp205:
	.loc	1 159 21 is_stmt 0
	eors	r0, r1
.Ltmp206:
	.loc	1 238 17 is_stmt 1
	str	r0, [sp, #100]
	eor.w	r0, r10, r3
.Ltmp207:
	.loc	1 219 20
	eor.w	r1, r10, r2
.Ltmp208:
	.loc	1 159 48
	ldrb.w	r3, [r8, #35]
.Ltmp209:
	.loc	1 240 38
	eor.w	r1, r1, r0, lsl #1
	.loc	1 238 17
	sxtb	r0, r0
.Ltmp210:
	.loc	1 219 29
	and.w	r0, r9, r0, lsr #7
.Ltmp211:
	.loc	1 240 17
	eors	r0, r1
	ldr	r1, [sp, #4]
.Ltmp212:
	.loc	1 159 21
	eors	r0, r6
.Ltmp213:
	.loc	1 235 17
	str	r0, [sp, #44]
	eor.w	r0, r12, r1
.Ltmp214:
	.loc	1 159 48
	ldrb.w	r6, [r8, #37]
.Ltmp215:
	.loc	1 219 20
	eor.w	r1, r1, r0, lsl #1
.Ltmp216:
	.loc	1 235 17
	sxtb	r0, r0
.Ltmp217:
	.loc	1 219 29
	and.w	r0, r9, r0, lsr #7
.Ltmp218:
	.loc	1 237 38
	eors	r0, r1
	.loc	1 231 17
	ldr	r1, [sp, #40]
	eors	r1, r4
.Ltmp219:
	.loc	1 237 17
	eors	r0, r1
.Ltmp220:
	.loc	1 159 21
	eors	r0, r6
.Ltmp221:
	.loc	1 219 20
	str	r0, [sp, #40]
	ldr	r0, [sp, #104]
.Ltmp222:
	.loc	1 231 23
	sxtb.w	r6, lr
.Ltmp223:
	.loc	1 219 29
	and.w	r6, r9, r6, lsr #7
	.loc	1 219 20 is_stmt 0
	eor.w	r0, r0, lr, lsl #1
.Ltmp224:
	.loc	1 234 36 is_stmt 1
	eors	r0, r6
	.loc	1 234 17 is_stmt 0
	eors	r0, r1
.Ltmp225:
	.loc	1 159 48 is_stmt 1
	ldrb.w	r1, [r8, #36]
.Ltmp226:
	.loc	1 159 21 is_stmt 0
	eors	r0, r1
.Ltmp227:
	.loc	1 68 10 is_stmt 1
	str	r0, [sp, #4]
	ldr	r0, [sp, #88]
.Ltmp228:
	uxtb	r0, r0
.Ltmp229:
	.loc	1 68 5 is_stmt 0
	ldrb.w	r1, [r11, r0]
.Ltmp230:
	.loc	1 68 10
	ldr	r0, [sp, #80]
	uxtb	r0, r0
	.loc	1 68 5
	ldrb.w	lr, [r11, r0]
	.loc	1 68 10
	ldr	r0, [sp, #72]
.Ltmp231:
	.loc	1 241 17 is_stmt 1
	eor.w	r6, lr, r1
.Ltmp232:
	sxtb	r4, r6
.Ltmp233:
	.loc	1 219 29
	and.w	r4, r9, r4, lsr #7
.Ltmp234:
	.loc	1 243 38
	eor.w	r12, r4, r6, lsl #1
.Ltmp235:
	.loc	1 68 10
	uxtb	r4, r0
.Ltmp236:
	ldr	r0, [sp, #64]
.Ltmp237:
	.loc	1 68 5 is_stmt 0
	ldrb.w	r4, [r11, r4]
.Ltmp238:
	.loc	1 68 10
	uxtb	r2, r0
.Ltmp239:
	.loc	1 68 5
	ldrb.w	r2, [r11, r2]
.Ltmp240:
	.loc	1 231 23 is_stmt 1
	eor.w	r6, r4, lr
.Ltmp241:
	eor.w	r0, r6, r2
.Ltmp242:
	.loc	1 243 17
	eor.w	r12, r12, r0
.Ltmp243:
	.loc	1 231 17
	eors	r0, r1
.Ltmp244:
	.loc	1 159 21
	eor.w	r3, r3, r12
.Ltmp245:
	.loc	1 238 17
	str	r3, [sp, #104]
	eor.w	r3, r1, r2
.Ltmp246:
	.loc	1 235 17
	eors	r2, r4
.Ltmp247:
	.loc	1 219 20
	eor.w	r12, r1, r3, lsl #1
.Ltmp248:
	.loc	1 238 17
	sxtb	r3, r3
.Ltmp249:
	.loc	1 219 29
	and.w	r3, r9, r3, lsr #7
.Ltmp250:
	.loc	1 240 38
	eor.w	r3, r3, r12
	.loc	1 240 17 is_stmt 0
	eors	r3, r6
.Ltmp251:
	.loc	1 159 21 is_stmt 1
	eors	r3, r5
.Ltmp252:
	.loc	1 235 17
	str	r3, [sp, #96]
.Ltmp253:
	.loc	1 219 20
	eor.w	r3, r4, r2, lsl #1
.Ltmp254:
	.loc	1 235 17
	sxtb	r2, r2
.Ltmp255:
	.loc	1 237 38
	eor.w	r1, r3, r0
.Ltmp256:
	.loc	1 219 29
	and.w	r2, r9, r2, lsr #7
.Ltmp257:
	.loc	1 237 17
	eors	r1, r2
.Ltmp258:
	.loc	1 159 48
	ldrb.w	r2, [r8, #33]
	ldrd	r3, r4, [sp, #20]
	.loc	1 159 21 is_stmt 0
	eors	r1, r2
.Ltmp259:
	.loc	1 231 23 is_stmt 1
	sxtb	r2, r6
.Ltmp260:
	.loc	1 219 20
	str	r1, [sp, #92]
	eor.w	r1, lr, r6, lsl #1
	.loc	1 219 29 is_stmt 0
	and.w	r2, r9, r2, lsr #7
	ldr	r5, [sp]
.Ltmp261:
	.loc	1 234 36 is_stmt 1
	eors	r1, r2
.Ltmp262:
	.loc	1 159 48
	ldr	r2, [sp, #108]
.Ltmp263:
	.loc	1 234 17
	eors	r0, r1
.Ltmp264:
	.loc	1 159 48
	ldrb.w	r1, [r8, #32]
	add	r2, r5
.Ltmp265:
	.loc	1 0 48 is_stmt 0
	ldr.w	lr, [sp, #32]
.Ltmp266:
	.loc	1 159 21
	eors	r0, r1
.Ltmp267:
	.loc	1 241 17 is_stmt 1
	str	r0, [sp, #80]
	eor.w	r0, r4, r3
.Ltmp268:
	.loc	1 0 17 is_stmt 0
	ldr	r6, [sp, #84]
.Ltmp269:
	.loc	1 159 48 is_stmt 1
	ldrb	r2, [r2, #7]
.Ltmp270:
	.loc	1 241 17
	sxtb	r1, r0
.Ltmp271:
	.loc	1 219 29
	and.w	r1, r9, r1, lsr #7
.Ltmp272:
	.loc	1 243 38
	eor.w	r0, r1, r0, lsl #1
.Ltmp273:
	.loc	1 231 23
	eor.w	r1, lr, r6
	.loc	1 243 17
	eors	r0, r1
.Ltmp274:
	.loc	1 231 17
	eors	r1, r3
.Ltmp275:
	.loc	1 159 21
	eors	r0, r2
.Ltmp276:
	.loc	1 231 23
	sxtb	r2, r6
.Ltmp277:
	.loc	1 219 20
	str	r0, [sp, #88]
	eor.w	r0, r4, r6, lsl #1
	.loc	1 219 29 is_stmt 0
	and.w	r2, r9, r2, lsr #7
.Ltmp278:
	.loc	1 159 21 is_stmt 1
	ldr	r3, [sp, #28]
.Ltmp279:
	.loc	1 234 36
	eors	r0, r2
.Ltmp280:
	.loc	1 159 21
	ldr	r2, [sp, #12]
.Ltmp281:
	.loc	1 234 17
	eors	r0, r1
.Ltmp282:
	.loc	1 159 21
	eors	r0, r2
.Ltmp283:
	.loc	1 235 17
	str	r0, [sp, #84]
	ldr	r2, [sp, #68]
	ldr	r0, [sp, #8]
	eors	r0, r2
.Ltmp284:
	.loc	1 219 20
	eor.w	r2, r2, r0, lsl #1
.Ltmp285:
	.loc	1 235 17
	sxtb	r0, r0
.Ltmp286:
	.loc	1 219 29
	and.w	r0, r9, r0, lsr #7
.Ltmp287:
	.loc	1 237 38
	eors	r0, r2
	.loc	1 231 17
	ldr	r2, [sp, #76]
	eor.w	r2, r2, r10
.Ltmp288:
	.loc	1 0 17 is_stmt 0
	add.w	r10, sp, #160
	.loc	1 237 17 is_stmt 1
	eors	r0, r2
.Ltmp289:
	.loc	1 159 21
	eor.w	r12, r0, r3
.Ltmp290:
	.loc	1 0 21 is_stmt 0
	ldr	r3, [sp, #16]
.Ltmp291:
	.loc	1 219 20 is_stmt 1
	ldr	r0, [sp, #36]
	eor.w	r0, r0, r3, lsl #1
.Ltmp292:
	.loc	1 231 23
	sxtb	r3, r3
.Ltmp293:
	.loc	1 219 29
	and.w	r3, r9, r3, lsr #7
.Ltmp294:
	.loc	1 234 36
	eors	r0, r3
	ldr	r3, [sp, #48]
	.loc	1 234 17 is_stmt 0
	eors	r0, r2
.Ltmp295:
	.loc	1 159 48 is_stmt 1
	ldr	r2, [sp, #108]
.Ltmp296:
	.loc	1 219 20
	eors	r1, r3
.Ltmp297:
	.loc	1 159 48
	ldrb	r2, [r5, r2]
.Ltmp298:
	.loc	1 0 48 is_stmt 0
	ldr	r5, [sp, #56]
	.loc	1 159 21
	eor.w	r6, r0, r2
.Ltmp299:
	.loc	1 235 17 is_stmt 1
	eor.w	r0, lr, r3
	ldr	r2, [sp, #108]
.Ltmp300:
	.loc	1 237 38
	eor.w	r1, r1, r0, lsl #1
	.loc	1 235 17
	sxtb	r0, r0
.Ltmp301:
	.loc	1 219 29
	and.w	r0, r9, r0, lsr #7
	ldr.w	r9, [sp, #4]
.Ltmp302:
	.loc	1 237 17
	eors	r0, r1
.Ltmp303:
	.loc	1 159 48
	ldrb.w	r1, [r8, #29]
.Ltmp304:
	.loc	1 0 48 is_stmt 0
	ldr.w	r8, [sp, #52]
.Ltmp305:
	.loc	12 1327 52 is_stmt 1
	adds	r2, #16
.Ltmp306:
	.loc	1 159 21
	eors	r0, r1
.Ltmp307:
	.loc	12 1327 52
	str	r0, [sp, #76]
	ldr	r0, [sp, #60]
.Ltmp308:
	.loc	13 621 12
	cmp	r2, #144
	str	r0, [sp, #68]
	mov	r1, r5
	mov	r3, r0
	ldr	r0, [sp, #40]
	str	r0, [sp, #72]
	mov	r4, r0
	ldr	r0, [sp, #44]
	str	r0, [sp, #64]
	bne.w	.LBB5_6
.Ltmp309:
	.loc	13 0 12 is_stmt 0
	mov	lr, r0
.Ltmp310:
	.loc	1 68 10 is_stmt 1
	uxtb	r0, r6
	.loc	1 68 5 is_stmt 0
	ldrb.w	r0, [r11, r0]
.Ltmp311:
	.loc	1 159 48 is_stmt 1
	ldrb.w	r1, [sp, #328]
.Ltmp312:
	ldrb.w	r2, [sp, #329]
.Ltmp313:
	.loc	1 159 21 is_stmt 0
	eors	r0, r1
	strb.w	r0, [sp, #144]
.Ltmp314:
	.loc	1 68 10 is_stmt 1
	ldr	r0, [sp, #76]
.Ltmp315:
	.loc	1 159 48
	ldrb.w	r6, [sp, #330]
.Ltmp316:
	ldrb.w	r10, [sp, #331]
.Ltmp317:
	.loc	1 68 10
	uxtb	r0, r0
.Ltmp318:
	.loc	1 159 48
	ldrb.w	r1, [sp, #332]
.Ltmp319:
	.loc	1 68 5
	ldrb.w	r0, [r11, r0]
.Ltmp320:
	.loc	1 159 21
	eors	r0, r2
.Ltmp321:
	strb.w	r0, [sp, #145]
.Ltmp322:
	.loc	1 68 10
	ldr	r0, [sp, #96]
.Ltmp323:
	.loc	1 159 48
	ldrb.w	r2, [sp, #339]
.Ltmp324:
	.loc	1 68 10
	uxtb	r0, r0
.Ltmp325:
	.loc	1 68 5 is_stmt 0
	ldrb.w	r0, [r11, r0]
.Ltmp326:
	.loc	1 159 21 is_stmt 1
	eors	r0, r6
.Ltmp327:
	strb.w	r0, [sp, #146]
.Ltmp328:
	.loc	1 68 10
	uxtb	r0, r3
.Ltmp329:
	.loc	1 159 48
	ldrb.w	r3, [sp, #340]
.Ltmp330:
	.loc	1 68 5
	ldrb.w	r0, [r11, r0]
.Ltmp331:
	.loc	1 159 48
	ldrb.w	r6, [sp, #341]
	.loc	1 159 21 is_stmt 0
	eor.w	r0, r0, r10
.Ltmp332:
	strb.w	r0, [sp, #147]
.Ltmp333:
	.loc	1 68 10 is_stmt 1
	ldr	r0, [sp, #84]
.Ltmp334:
	uxtb	r0, r0
.Ltmp335:
	.loc	1 68 5 is_stmt 0
	ldrb.w	r0, [r11, r0]
.Ltmp336:
	.loc	1 159 21 is_stmt 1
	eors	r0, r1
	strb.w	r0, [sp, #148]
.Ltmp337:
	.loc	1 68 10
	ldr	r0, [sp, #92]
.Ltmp338:
	.loc	1 159 48
	ldrb.w	r1, [sp, #333]
.Ltmp339:
	.loc	1 68 10
	uxtb	r0, r0
.Ltmp340:
	.loc	1 68 5 is_stmt 0
	ldrb.w	r0, [r11, r0]
.Ltmp341:
	.loc	1 159 21 is_stmt 1
	eors	r0, r1
	strb.w	r0, [sp, #149]
.Ltmp342:
	.loc	1 68 10
	uxtb	r0, r5
.Ltmp343:
	.loc	1 159 48
	ldrb.w	r1, [sp, #334]
.Ltmp344:
	.loc	1 68 5
	ldrb.w	r0, [r11, r0]
.Ltmp345:
	.loc	1 159 21
	eors	r0, r1
	strb.w	r0, [sp, #150]
.Ltmp346:
	.loc	1 68 10
	ldr	r0, [sp, #100]
.Ltmp347:
	.loc	1 159 48
	ldrb.w	r1, [sp, #335]
.Ltmp348:
	.loc	1 68 10
	uxtb	r0, r0
.Ltmp349:
	.loc	1 68 5 is_stmt 0
	ldrb.w	r0, [r11, r0]
.Ltmp350:
	.loc	1 159 21 is_stmt 1
	eors	r0, r1
	strb.w	r0, [sp, #151]
.Ltmp351:
	.loc	1 68 10
	ldr	r0, [sp, #80]
.Ltmp352:
	.loc	1 159 48
	ldrb.w	r1, [sp, #336]
.Ltmp353:
	.loc	1 68 10
	uxtb	r0, r0
.Ltmp354:
	.loc	1 68 5 is_stmt 0
	ldrb.w	r0, [r11, r0]
.Ltmp355:
	.loc	1 159 21 is_stmt 1
	eors	r0, r1
	strb.w	r0, [sp, #152]
.Ltmp356:
	.loc	1 68 10
	uxtb	r0, r4
.Ltmp357:
	.loc	1 159 48
	ldrb.w	r1, [sp, #337]
.Ltmp358:
	.loc	1 68 5
	ldrb.w	r0, [r11, r0]
.Ltmp359:
	.loc	1 159 21
	eors	r0, r1
	strb.w	r0, [sp, #153]
.Ltmp360:
	.loc	1 68 10
	uxtb.w	r0, lr
.Ltmp361:
	.loc	1 159 48
	ldrb.w	r1, [sp, #338]
.Ltmp362:
	.loc	1 68 5
	ldrb.w	r0, [r11, r0]
.Ltmp363:
	.loc	1 159 21
	eors	r0, r1
	strb.w	r0, [sp, #154]
.Ltmp364:
	.loc	1 68 10
	ldr	r0, [sp, #88]
.Ltmp365:
	.loc	1 159 48
	ldrb.w	r1, [sp, #342]
.Ltmp366:
	.loc	1 68 10
	uxtb	r0, r0
.Ltmp367:
	.loc	1 68 5 is_stmt 0
	ldrb.w	r0, [r11, r0]
.Ltmp368:
	.loc	1 159 21 is_stmt 1
	eors	r0, r2
.Ltmp369:
	strb.w	r0, [sp, #155]
.Ltmp370:
	.loc	1 68 10
	uxtb.w	r0, r9
.Ltmp371:
	.file	14 "/rustc/db9d1b20bba1968c1ec1fc49616d4742c1725b4b/library/core/src/array\\equality.rs"
	.loc	14 132 13
	movs	r2, #16
.Ltmp372:
	.loc	1 68 5
	ldrb.w	r0, [r11, r0]
.Ltmp373:
	.loc	1 159 21
	eors	r0, r3
.Ltmp374:
	strb.w	r0, [sp, #156]
.Ltmp375:
	.loc	1 68 10
	uxtb.w	r0, r12
.Ltmp376:
	.loc	1 68 5 is_stmt 0
	ldrb.w	r0, [r11, r0]
.Ltmp377:
	.loc	1 159 21 is_stmt 1
	eors	r0, r6
.Ltmp378:
	strb.w	r0, [sp, #157]
.Ltmp379:
	.loc	1 68 10
	uxtb.w	r0, r8
.Ltmp380:
	.loc	1 68 5 is_stmt 0
	ldrb.w	r0, [r11, r0]
.Ltmp381:
	.loc	1 159 21 is_stmt 1
	eors	r0, r1
	strb.w	r0, [sp, #158]
.Ltmp382:
	.loc	1 68 10
	ldr	r0, [sp, #104]
.Ltmp383:
	.loc	1 159 48
	ldrb.w	r1, [sp, #343]
.Ltmp384:
	.loc	1 68 10
	uxtb	r0, r0
.Ltmp385:
	.loc	1 68 5 is_stmt 0
	ldrb.w	r0, [r11, r0]
.Ltmp386:
	.loc	1 159 21 is_stmt 1
	eors	r0, r1
	strb.w	r0, [sp, #159]
.Ltmp387:
	.loc	1 0 21 is_stmt 0
	add	r0, sp, #144
	add	r1, sp, #128
.Ltmp388:
	.loc	14 132 13 is_stmt 1
	bl	memcmp
.Ltmp389:
	.loc	1 404 5
	cbnz	r0, .LBB5_9
.Ltmp390:
.LBB5_8:
	.loc	2 126 1
	b	.LBB5_8
.LBB5_9:
.Ltmp391:
	.loc	2 0 1 is_stmt 0
	movs	r0, #0
.Ltmp392:
	add	r1, sp, #128
.Ltmp393:
	.loc	1 404 5 is_stmt 1
	strd	r0, r0, [sp, #360]
	add	r2, sp, #344
	strd	r0, r0, [sp, #352]
	strd	r0, r0, [sp, #344]
	add	r0, sp, #144
	bl	_ZN4core9panicking13assert_failed17h50ed13967c67fe2fE
	.inst.n	0xdefe
.Ltmp394:
.Lfunc_end5:
	.size	_ZN16psoc6_helloworld18__cortex_m_rt_main17h98f636c1ca0ff03cE, .Lfunc_end5-_ZN16psoc6_helloworld18__cortex_m_rt_main17h98f636c1ca0ff03cE
	.cfi_endproc
	.file	15 "/rustc/db9d1b20bba1968c1ec1fc49616d4742c1725b4b/library/core/src/slice\\mod.rs"
	.cantunwind
	.fnend

	.type	.L__unnamed_1,%object
	.section	.rodata..L__unnamed_1,"a",%progbits
	.p2align	2
.L__unnamed_1:
	.long	_ZN4core3ptr27drop_in_place$LT$$RF$u8$GT$17hb7f49a1b0a1fbfa8E
	.asciz	"\004\000\000\000\004\000\000"
	.long	_ZN42_$LT$$RF$T$u20$as$u20$core..fmt..Debug$GT$3fmt17h28cc2c45b377c7dbE
	.size	.L__unnamed_1, 16

	.type	.L__unnamed_2,%object
	.section	.rodata..L__unnamed_2,"a",%progbits
	.p2align	2
.L__unnamed_2:
	.long	_ZN4core3ptr27drop_in_place$LT$$RF$u8$GT$17hb7f49a1b0a1fbfa8E
	.asciz	"\004\000\000\000\004\000\000"
	.long	_ZN42_$LT$$RF$T$u20$as$u20$core..fmt..Debug$GT$3fmt17h9e48b0bb1f39d125E
	.size	.L__unnamed_2, 16

	.type	_ZN16psoc6_helloworld18aes_using_1d_array4sbox17hed60259f3f51e0c0E,%object
	.section	.rodata._ZN16psoc6_helloworld18aes_using_1d_array4sbox17hed60259f3f51e0c0E,"a",%progbits
_ZN16psoc6_helloworld18aes_using_1d_array4sbox17hed60259f3f51e0c0E:
	.ascii	"c|w{\362ko\3050\001g+\376\327\253v\312\202\311}\372YG\360\255\324\242\257\234\244r\300\267\375\223&6?\367\3144\245\345\361q\3301\025\004\307#\303\030\226\005\232\007\022\200\342\353'\262u\t\203,\032\033nZ\240R;\326\263)\343/\204S\321\000\355 \374\261[j\313\2769JLX\317\320\357\252\373CM3\205E\371\002\177P<\237\250Q\243@\217\222\2358\365\274\266\332!\020\377\363\322\315\f\023\354_\227D\027\304\247~=d]\031s`\201O\334\"*\220\210F\356\270\024\336^\013\333\3402:\nI\006$\\\302\323\254b\221\225\344y\347\3107m\215\325N\251lV\364\352ez\256\b\272x%.\034\246\264\306\350\335t\037K\275\213\212p>\265fH\003\366\016a5W\271\206\301\035\236\341\370\230\021i\331\216\224\233\036\207\351\316U(\337\214\241\211\r\277\346BhA\231-\017\260T\273\026"
	.size	_ZN16psoc6_helloworld18aes_using_1d_array4sbox17hed60259f3f51e0c0E, 256

	.type	_ZN16psoc6_helloworld18aes_using_1d_array4Rcon17hf4ab9f7f6fc00789E,%object
	.section	.rodata._ZN16psoc6_helloworld18aes_using_1d_array4Rcon17hf4ab9f7f6fc00789E,"a",%progbits
_ZN16psoc6_helloworld18aes_using_1d_array4Rcon17hf4ab9f7f6fc00789E:
	.ascii	"\215\001\002\004\b\020 @\200\0336l\330\253M\232/^\274c\306\2275j\324\263}\372\357\305\2219r\344\323\275a\302\237%J\2243f\314\203\035:t\350\313\215\001\002\004\b\020 @\200\0336l\330\253M\232/^\274c\306\2275j\324\263}\372\357\305\2219r\344\323\275a\302\237%J\2243f\314\203\035:t\350\313\215\001\002\004\b\020 @\200\0336l\330\253M\232/^\274c\306\2275j\324\263}\372\357\305\2219r\344\323\275a\302\237%J\2243f\314\203\035:t\350\313\215\001\002\004\b\020 @\200\0336l\330\253M\232/^\274c\306\2275j\324\263}\372\357\305\2219r\344\323\275a\302\237%J\2243f\314\203\035:t\350\313\215\001\002\004\b\020 @\200\0336l\330\253M\232/^\274c\306\2275j\324\263}\372\357\305\2219r\344\323\275a\302\237%J\2243f\314\203\035:t\350\313"
	.size	_ZN16psoc6_helloworld18aes_using_1d_array4Rcon17hf4ab9f7f6fc00789E, 255

	.type	.L__unnamed_4,%object
	.section	.rodata..L__unnamed_4,"a",%progbits
.L__unnamed_4:
	.ascii	"src\\aes_using_1d_array.rs"
	.size	.L__unnamed_4, 25

	.type	.L__unnamed_3,%object
	.section	.rodata..L__unnamed_3,"a",%progbits
	.p2align	2
.L__unnamed_3:
	.long	.L__unnamed_4
	.asciz	"\031\000\000\000\224\001\000\000\005\000\000"
	.size	.L__unnamed_3, 16

	.type	CM0_BOOT,%object
	.section	.cm0boot,"a",%progbits
	.globl	CM0_BOOT
CM0_BOOT:
	.asciz	"\000 \000\b\353\000\000\020\r\000\000\000M\001\000\020\000\000\000\000\000\000\000\000\000\000\000\000\000\000\000\000\000\000\000\000\000\000\000\000\000\000\000\000I\001\000\020\000\000\000\000\000\000\000\000I\001\000\020I\001\000\020I\001\000\020I\001\000\020I\001\000\020I\001\000\020I\001\000\020I\001\000\020I\001\000\020I\001\000\020I\001\000\020I\001\000\020I\001\000\020I\001\000\020I\001\000\020I\001\000\020I\001\000\020I\001\000\020\020\265\006L#x\000+\007\321\005K\000+\002\320\004H\000\340\000\277\001##p\020\275\260\003\000\b\000\000\000\000\024\025\000\020\004K\020\265\000+\003\320\003I\004H\000\340\000\277\020\275\300F\000\000\000\000\264\003\000\b\024\025\000\020\0020\200\b\003\320\0010\0028\374\321\300F\300FpG\357\363\020\200r\266pG\200\363\020\210pGpG\377\367\375\377r\266\017L\020M\254B\t\332!hbh\243h\004;\002\333\310X\320P\372\347\f4\363\347\nI\013J\000 R\032\002\335\004:\210P\374\334\bH\tI\b`\277\363O\217\000\360\377\376\000\360\257\376\376\347 \025\000\0208\025\000\020\260\003\000\b\310\005\000\b\000\000\000\b\b\355\000\340\376\347\376\347\000\265\004 qF\bB\002\320\357\363\t\200\001\340\357\363\b\200\0040\000\360\223\374\376\347\001K\030`pG\300F\304\005\000\b\004K\033h\032\000\2722\022\210\033jPC\300\030pG\300F\304\005\000\b\035K\230B\017\320\020\330@(/\320\005\330\000(0\320\020((\320\031H\036\340\200((\320\200#[\000\230B\367\321\024H\026\340\025K\230B\024\320\b\330\240#\033\006\230B\034\320\022K\230B\352\321\240 \013\340\020K\230B\n\320\020K\230B\t\320\017K\230B\337\321\017HpG\244 \300\003\373\347\rH\371\347\rH\367\347\rH\365\347\rH\363\347\rH\361\347\000 \357\347\006\000R\000\377\000R\000\001\000\000\360\t\000\000\240\004\000\000\360\005\000\000\360\003\000\000\360\001\000R\000\002\000R\000\003\000R\000\001\000P\000\002\000P\000\005\000R\000\020\265\000 \377\367\232\377\nK\034h#\000\2743\033h\300\030\003h\000+\n\333\007K\030h\377\367\231\377\001\"ch\232`\232h\000*\374\321\020\275\002H\374\347\304\005\000\b\314\003\000\b\002\000P\000\006K\033h\2743\033h\303\030\033h\000+\003\332\211\262A`\000 pG\001H\374\347\304\005\000\b\001\000\212\000\003h\000+\004\332\211\262\302`\201`\000 pG\000H\374\347\001\000\212\000\006K\033h\2743\033h\303\030\033h\000+\003\332\303h\000 \013`pG\001H\374\347\304\005\000\b\001\000\212\000\002K\032h\000*\000\321\030`pG\340\003\000\b\360\265,$`C\025L\037\000$h\035\n \030\377$%@'@\022L\033\f&h\007`4jE`\203`\27266\210wC?\031\007a/\000\2007m\001\177\001\347\031d\031\nMGa\037\004;Cd\031#`\000#\203a\005\233\302a\001b\000+\001\320\033\210\203\201\360\275\300F\340\003\000\b\304\005\000\b\b\020\000\000\360\265\203h\205\260\002\255+\200\025K\002h\033h\006j\033\217Gj\233\030k\200Ch\000\225\202j\301j\004\000\003\223\003i\300h\377\367\265\377\000!;\000\n\000\000\2210\000\377\367\256\377!k(\000\000\3600\373\000\"\253^\000+\006\333\037\"\023@\036:\232@\023\000\003J\023`\005\260\360\275\300F\304\005\000\b\000\341\000\340\367\265,%\023LhC&hiC4\030%i\001\223q\030\000-\031\320\210i\000(\030\321.h\000.\025\332gh\001$&\000Kh\236@\264F\023h\236\262cF\033\004\036C\026`\352`\214a\274@\001\233\244\262Kb\254`\376\275\002H\374\347\002H\372\347\340\003\000\b\004\002\212\000\007\002\212\000s\265\000&Bi\004\000\325h\001\226+\f\263B!\320\033\004\023`\023h\031K\000i\033h\2743\033h\303\030\033h\263B\025\332\001\251\377\3676\377\260B\f\321\001\230\342i\003h\036\f\333\262\232B\005\331\"j\233\000\233X\000+\000\320\230G1\000 i\377\367\005\377\255\262\000-\t\320ci\035`\000%\033hcj\253B\005\320\230Geb\245aci\033hs\275\243j\000+\370\320\230G\366\347\304\005\000\b,#\020\265CC\003J\020h\300\030\377\367\266\377\020\275\300F\340\003\000\b\370\265\031K\017\000\033h\032\00032\022x\202B'\331\000)%\320\037%\nh\025@!\321\031\000\2721\f\210\021N`C\034j\322\b\004\031)\000xh4`\000\360~\377)\000 \000\377\367\302\376:\000)\0000h\377\367\317\376\004\036\007\321\001\0000h\377\367\267\376\003\000 \000\000+\000\320\004H\370\275\004H\374\347\300F\304\005\000\b\344\003\000\b\001\001\212\000\003\001\212\000\020\265\000*\r\321\000)\024\321\013K\032h\023\000\2723\033\210XC\023j\300\030\bK\030`\b\000\020\275\000)\006\320\006K\031`\031\000Z`\377\367\253\377\365\347\003H\363\347\304\005\000\b\344\003\000\bx\003\000\b\003\001\212\000\367\265\030O\004\000;h\001\221\336h3h\203B&\331\000%\251B\002\321\377\367\245\375\005\0008h\003h\000+\032\332\037\"\001#\"@\223@d\trh\244\000\024\031\"h\023B\r\320\232C\"`\000$\000!\377\367^\376\001\233\000+\002\321(\000\377\367\215\375 \000\376\275\003L\362\347\003L\363\347\003L\367\347\344\003\000\b\002\001\210\000\003\001\210\000\004\001\212\000\nK\033h\333h\032h\202B\r\331Yh\037#B\t\030@\036;\203@\222\000PX\030@C\036\230A\003K\300\030pG\002H\374\347\344\003\000\b\000\001\210\000\004\001\212\000\005K\033h\032\000\2102\033h\022h\233\030\030h\000\n\300\262pG\300F\304\005\000\b\004K\033h\032\000\2102\033h\022h\233\030\030h\000\016pG\304\005\000\b\002K\030i@\007\300\017pG\300F\000\000'@\246\"\005I\322\000\213X\002 \333C\233\007\002\320\001#\210X\030@pG\000\000&@\020\265\377\367\357\377\000#\002(\001\321\001K\033h\030\000\020\275\354\003\000\b\tJ\203\000\233\030\320\"\222\000\230X\007\"\020@\004(\007\321\300\"\222\000\230X\037#\003@\200 @\000\030CpG\300F\000\000&@\020\265\377\367\347\377\002(\034\320\005\330\000($\320\001(\024\320\000 \024\340\022#\3773\230B\024\320\024#\3773\230B\025\320\003;\230B\362\321\fJ\fK\323X\000+\355\332\200 \000\002\001\340\nK\030h\020\275\377\367\272\377\373\347\377\367\241\377\000(\340\320\361\347\002J\005K\353\347\005H\361\347\300F\000\000&@\f\005\000\000\350\003\000\b<\005\000\000\000\022z\000\260#\025J\333\000\323X\020\265\231\003\333\001\333\017\211\013\303q\021K\001`\323X\017$\331\004\333\001\333\r\003\201\261#\333\000\323X\311\f\201\200\031\000!@\201r\031\t!@\301r\331\002\233\000\233\017\203s\007K\311\f\323X\201\201Z\005\333\001R\017\333\r\202q\003\202\020\275\000\000&@\204\005\000\000\214\005\000\000\020\265\020KB\036\033h?3\033x\223B\026\331\177\"\037$\2000\3770\013K\200\000\303X\032@\np\032\f\"@\030\n\212p\032\001 @\342@Hp\000 \233\000\233\017\312p\013q\020\275\003H\374\347\300F\304\005\000\b\000\000&@\001\000J\000\360\265\211\260\003\254\024\"\000! \000\000\360\366\375 \000\377\367\233\377\260#\032J\333\000\322X\000#\232B\003\332\243{\002;Z\036\223A\345y\000&j\036\225A\0015\263B!\320\244\210\264B\036\320\003\2330\000\001\223\377\367G\377*\0003\000\007\0001\000 \000\000\360\274\374\f\000\005\0003\000\001\2321\0008\000\000\360\264\374\346\007j\b2Cc\b\200\030YA*\000#\000\000\360\212\374\006\0000\000\t\260\360\275\000\000&@\360\265\000&$K\205\260\033h\007\000?3\033x\263B>\320\260B<\320\203B:\323\005\"1\000\002\250\000\360\247\375\002\2518\000\377\367}\377;\000\2003\3773\031J\233\000\233X\263B)\332\002\253\033y\002+%\320\002\253\\x\264B!\320\235x\265B\036\320\033x8\000\001\223\377\367\371\376*\0003\000\007\0001\000 \000\000\360n\374\f\000\005\0003\000\001\2321\0008\000\000\360f\374\346\007j\b2Cc\b\200\030YA*\000#\000\000\360<\374\006\0000\000\005\260\360\275\304\005\000\b\000\000&@\020\265\004\036\004\321\377\367g\377\000(\006\320\b\340\006K\033h?3\033x\203B\003\322 \000\377\367\307\376\020\275\377\367\234\377\357\347\300F\304\005\000\b\340\"\020\265\001$\tK\200\000\222\000\300\030\203X\200X\233\006\233\017\234@\017#\030@\377\367\330\377c\b\030\030!\000\000\360{\373\020\275\000\000&@\024K0\265\032h\007$\023\000,3\033x\037+\025\330\203\b\035\000\245C,\036\017\321\0034 @\240@\201@\022h\233\000 2\323\030\n\000\377!\201@\034hb@\021@a@\031`0\275\200# @\033\006\030C\200#\233\001\022h\311\030\211\000\210P\363\347\304\005\000\b\006K\232h\003\000\006H\0203\233\000\202B\002\321\230X\231PpG\003J\320X\373\347\000\355\000\340\000\000\000\b\000\000\000\020\370\265\006\000\r\000\000(:\320\000#\300^\000((\333q\210\377\367\264\377\000$\377\"\003'\224F\000#\360^qh\203\262\037@\377\000fF\272@\211\0011@\322C\271@\000(\025\333\021N\203\b\233\000\233\031\300&\266\000\237Y:@\021C\231Q\rK\232h\rK\232B\002\321)\000\377\367\274\377 \000\370\275\nL\330\347\017&3@\b;\006N\233\b\233\000\233\031\336i2@\021C\331a\347\347\003L\355\347\000\341\000\340\000\355\000\340\000\000\000\b\001\000V\000\376\347\000\000\002h\nK\020\265\032`BhZ`\202h\232`\302h\332`\002i\032aBiZa\202i\232a\302i\332a\377\367\352\377\020\275\300F\220\003\000\b\260#[\005Zx! \000*\001\320Xx\300\262pG\260#[\005\232\211\000*\002\320\230\211\200\262pG\200 @\000\373\347\177\265'K\206\000\r\000\364X\004)\001\320\001)'\321\000 \017\340\243h+B\013\321\343h)\000\032h[h\002\222\001\223\003\223\002\250#h\230G\034K\034`di\000,\013\320\033K\230B\352\321\001-\350\321\027K\030H\032h\030K\232Q\004\260p\275\001-\373\321\024K\230B\363\320\023K\234Q\365\347\002)\006\321\017K\033h\030\036\357\320\034i\003\340\034\000ci\000+\373\321\000 \000,\346\320\243h+B\t\321\343h)\000\032h[h\002\222\001\223\003\223\002\250#h\230G$i\356\347\300F0\004\000\b,\004\000\b\377\000B\000\030\004\000\b\032K\033h\031\000\2101\032h\thQ\030\th\001b\031\000\2141\thR\030\022hBb\032\000F2\022x\000*\037\320\232h\3402\022h\322\006\032\325\362\"\333h\322\001\232X\002`\360\"\322\001\232XB`\nJ\232X\202`\nJ\232X\302`\tJ\232X\002a\tJ\232XBa\bJ\232X\202a\bJ\233X\303apG\300F\304\005\000\b\004x\000\000\bx\000\000\fx\000\000\020x\000\000\024x\000\000\030x\000\000\032K\033h\032\000\2102\031h\022h\212\030\001j\021`\032\000\2142\031h\022h\212\030Aj\021`\032\000F2\022x\000*\036\320\232h\3402\022h\322\006\031\325\360\"Ah\333h\322\001\231P\201h\013J\231P\301h\013J\231P\001i\nJ\231PAi\nJ\231P\201i\tJ\231P\301i\tJ\231P\001h\3502\231PpG\300F\304\005\000\b\004x\000\000\bx\000\000\fx\000\000\020x\000\000\024x\000\000\030x\000\000\367\265\007\000\377\367\b\377fM\006\000kh\000+\000\320}\340\377\367\017\372kh\000\220\000+\000\320\211\340aL\"h\023\000\2723\031\210\007#KC\022j\233\030\032h\000*\374\332\333h\332\000!\325\033\017\033\007YH\001\223\377\367R\377XI!.\000\320u\340\"h\220 \023\000\2103\034h\023h\000\001\034\031#h\013@\003C#`\023\000\2143\022h\033h\323\030\032h\021@\bC\030`KK\001\232\023C\200\"HN\222\0051h\023C\n\000\2722\020\210\007\"\000$BC\tjR\030\323`T`Sh\377\367\301\376\200#[\000\230B]\3218\000\000\360[\3732h\023\000\2723\031\210\007#KC\022j\233\030\032h\000*\374\332\337h\373\000\003\3258\001\000\t\377\367O\3776K2h\037@\023\000\2723\031\210\007#KC\022j\000\230\233\030\000\"\337`Z`\377\367\242\371\000,\017\321kh\000+\003\320\b!\001 \377\367\232\376 \000\376\275\001!\b\000\377\367\224\376\004\036\000\321z\347kh\000+\003\320\002!\001 \377\367\212\376\"K\234B\354\320\"L\352\347\004!\001 \377\367\201\376p\347 h\200\"\003\000\2103\034h\003hR\000\034\031#h\013@\023C#`\003\000\2143\000h\033h\303\030\030h\001@\nC\032`\210\3473h\032\000\2742\031j\022hR\030\021h\000)\020\333\2723\033\210\232\030\023h\000+\n\333\004#\fJ\021i\013C\023a\001/\001\3200\277\214\347 \277\212\347\005L\210\3470\004\000\b\304\005\000\b\360\003\000\b\377\000\377\377\377\377\377\337\005\000B\000\377\000B\000\000\355\000\340\300\"\200 \006IR\000\213X\300\005\233\000\233\b\003C\213P\200#\210X\033\006\003C\213PpG\000\000&@\020\265b\266\003H\000\360\301\370\000 \377\367\004\377\373\347\300F\000 \000\020\020\265\000 \377\367\370\372\020\275pG\020\265\000 \377\367F\375\004\036%\320\023K\030`\377\367\274\373A\034 \000\000\360\314\370\020K\004\000\030`\377\367\245\373A\034 \000\000\360\303\370\rKD\036\030`\fI \000\000\360\274\370\372!\013K\0010\030p\211\000 \000\000\360\264\370\bK\0010\030`\bK\300\003\030`\020\275\300F\204\000\000\b\210\000\000\b\200\000\000\b@B\017\000\224\000\000\b\220\000\000\b\214\000\000\b\020\265 H\377\367\034\371\260\"\340!0 \036L\322\000\243X\211\000[\000[\b\243PcX\203CcP\200#[\004\243P\030K\031J\342P\240\"\0043\222\001\342P\377\"\026K\342P\377\367\200\377\300\"\001!R\000\243X\213C\243P\377\367\233\377\377\367\232\377\020K\003 \032h\023\000\2723\031\210\007#KC\022j\200!\233\030\000\"\332`Z`\nJ\377\367\307\372\nH\377\367\232\371\tH\377\367\323\371\020\275 \024\000\020\000\000&@\204\005\000\000\001\000\002\000\214\005\000\000\304\005\000\b\200\003\000\bD\004\000\b\340\024\000\020\220#\003J[\001\320X\003#\030@pG\300F\000\000 @\020\265\220$\377\367w\370\007Kd\001\032Y\007I\021@\007J\nC\032Q\020\"Yh\021B\374\320\377\367m\370\020\275\300F\000\000 @\374\377\000\000\001\000\372\005\370\265\220%\016Lm\001\007\000\377\367Z\370cY\006\000\333C\233\007\001\321\377\367\330\377\200#\233\000\347PcY\007J\032@\007K\023CcQ\020#bh\032B\374\3200\000\377\367G\370\370\275\300F\000\000 @\374\377\000\000\003\000\372\005\000\"C\b\213Bt\323\003\t\213B_\323\003\n\213BD\323\003\013\213B(\323\003\f\213B\r\323\377\"\t\002\022\272\003\f\213B\002\323\022\022\t\002e\320\003\013\213B\031\323\000\340\t\n\303\013\213B\001\323\313\003\300\032RA\203\013\213B\001\323\213\003\300\032RAC\013\213B\001\323K\003\300\032RA\003\013\213B\001\323\013\003\300\032RA\303\n\213B\001\323\313\002\300\032RA\203\n\213B\001\323\213\002\300\032RAC\n\213B\001\323K\002\300\032RA\003\n\213B\001\323\013\002\300\032RA\315\322\303\t\213B\001\323\313\001\300\032RA\203\t\213B\001\323\213\001\300\032RAC\t\213B\001\323K\001\300\032RA\003\t\213B\001\323\013\001\300\032RA\303\b\213B\001\323\313\000\300\032RA\203\b\213B\001\323\213\000\300\032RAC\b\213B\001\323K\000\300\032RAA\032\000\322\001FRA\020FpG\377\347\001\265\000 \000\360\006\370\002\275\300F\000)\367\320v\347pGpG\300F\000+\021\321\000*\017\321\000)\000\321\000(\002\320\000!\311C\b\034\007\264\002H\002\241@\030\002\220\003\275\300F\331\377\377\377\003\264hF\001\265\002\230\000\3600\370\001\233\236F\002\260\f\274pG\300F\360\265\316FGF\025\004-\f.\000\200\265\007\004\024\f?\f\231F\003\f~C]CgCcC\177\0314\f\344\031\234F\245B\003\331\200#[\002\230F\304DKFCCQC%\f6\004eD6\f$\004\244\031[\031Y\030 \000\f\274\220F\231F\360\275\360\265OFFF\326F\300\265\004\000\202\260\r\000\221F\230F\213B/\330,\320AFHF\000\360\317\370)\000\006\000 \000\000\360\312\3703\032\234F ;\232F\000\325v\340KFRF\223@\037\000KFbF\223@\036\000\257B(\330%\320SF\244\033\275A\000+\000\332{\340\000\"\000#\000\222\001\223\001#RF\223@\001\223\001#bF\223@\000\223\030\340\202B\320\331\000\"\000#\000\222\001\223\n\233\000+\001\320\034`]`\000\230\001\231\002\260\034\274\220F\231F\242F\360\275\243B\327\331\000\"\000#\000\222\001\223cF\000+\351\320\373\007\230FAFr\b\nC{\bfF\016\340\253B\001\321\242B\f\330\244\032\235A\001 $\031mA\000!\001>$\030MA\000.\006\320\253B\356\331\001>$\031mA\000.\370\321\000\230\001\231SF\000\031iA\000+#\333+\000RF\323@*\000dF\342@\034\000SF\025\000\000+-\333&\000WF\276@3\000&\000gF\276@2\000\200\032\231A\000\220\001\221\254\347bF #\233\032JF\332@aF\023\000BF\212@\027\000\037C\200\347bF #\233\032*\000fF\232@#\000\363@\023C\324\347bF #\000!\233\032\000\"\000\221\001\222\001\"\332@\001\222\200\347 #bF&\000\233\032\336@/\000\260FfF\267@FF;\0003C\310\347\300F\034!\001#\033\004\230B\001\323\000\f\0209\033\n\230B\001\323\000\n\b9\033\t\230B\001\323\000\t\0049\002\242\020\\@\030pG\300F\004\003\002\002\001\001\001\001\000\000\000\000\000\000\000\000\020\265\000)\003\321\377\367\335\377 0\002\340\b\034\377\367\330\377\020\275\300F\003\000\022\030\223B\000\321pG\031p\0013\371\347\370\265\300F\370\274\b\274\236FpG\370\265\300F\370\274\b\274\236FpG\001\264\002H\204F\001\274`G\000\277a\002\000\b\000\000 @\000\000$@\000\000\000@\000\000\000\000\000\000#@\000\0000@\000\0001@\000\000\237@\000\000\"@\000\000\020@\000\000\235@     \020\020\020\020\035\035\200\027\000u\000\377\003\006\002\006\0006\004\020 \000\000\177\300\000\000\000\004\000\000\000\000\000\000\000\0312Kd}\000\000\000\000\000\200@\000\b\013\020\000\000\000\000\000\377\001 \002\000\037\000\200\000\004\377\b\020\030\000\020\000\024\000\030\000\034@DHLP\000\000\000\b\020\000\000\b\000\000\000\004\000\000\000\004\020\000\000\000\022\000\000\004!\000\000\000!\000\000\000\026\000\000@\021@\002\304\023\000\023\200\023\240\023@\023\210\023\250\023 \000\034\000\000\000\003\000\000\000\001\000\000\000\001\000\000\000\000\000\000\000\005\003`\000\004\000\000\000\001\000\000\000\000\000\000\000\001\000\000\000\006\004`\000\b\000\000\000\244\005\000\b\245\016\000\020\000\000\000\000\370\374\377\177\001\000\000\000\000\000\000\020\000\000\000\b\200\000\000\000@\025\000\020\200\000\000\b\370\002\000\000\260\003\000\b\030\002\000\000\000\t=\000\000\022z\000\000\t=\000\000\000\320\007\240\017\000\000\004\000\000\000\251\000\000\020\201\000\000\020\200\2620\265\300\000 \320\020K\007\"\034h#\000\2723\033\210ZC#j\323\030\031h\000)\374\332>!\013K\006%\031`\nK\013I\031`\243!\nK\311\000]P\nIXPXX j\022\030\000 P`ZX\000*\374\3320\275\304\005\000\b\004\001&@\b\001&@\036\037\000\000\000\000&@\034\005\000\000\020\265Cx\377+\021\321\000\360\354\370\004\000\003 \000\360\370\370\303hZh\001#\021h\031C\021`\021h\031B\374\321 \000\000\360\f\371\020\275\367\265\000\220\000 \001\221\000\360\345\370?M\006\000+h\032\000P3\2742\024h\033x\004\031\000+Z\320\000\360\340\370\007\000\003(\033\320\000\360\303\3707J7K\005\000\323X\000+>\3326J\001!0\000\000\360\360\370\000(7\321\001\230\377\367\217\377\000\233\000+>\320#h\000+\374\333\000\360\263\370\004\000+\340\006 \000\360\266\370+h\2743\033h\300\030\003h\000+\002\332(L \000\376\275\000 \000\360\271\370&K\230B\366\320\000#%J\031\000\022h\001 \000\360\267\370\000%\250B\354\321\000 \000\360\251\370\036J\037K\220B\003\320\235B\343\320\0015\364\347\235B\271\321\336\347\027L\003/\005\321\001!\000 \000\360\267\370\000(\371\321(\000\000\360\242\370\322\347\025L\361\347\000\360m\370\016J\005\000\001!0\000\000\360\237\370\000(\t\321\000\233\000+\b\320#h\000+\374\333\000\360e\370\004\000\345\347\006L\343\347\tL\341\347\300F\304\005\000\b\000\000&@\034\005\000\000\314\003\000\b\005\000R\000\001\001\210\000\334\003\000\b\360I\002\000\001\000P\000\030K\367\265\033h\030J\\h\004#\021i\013C\023a\001($\3200\277#\000\3743\033i\000+\035\321\243 \021K\022I\022J\300\000\017h\036X\025h\001\225\020M\r`\006%\035P> \020`\016H>5\035P\035X\000-\374\332\fH\3744 a\017`\243!\311\000^P\001\233\023`\367\275 \277\331\347\304\005\000\b\000\355\000\340\000\000&@\b\001&@\004\001&@\036\037\000\000\034\005\000\000\252\252\252\252\000\000\000\000\001\264\002H\204F\001\274`G\000\277\333\000\000\020\001\264\002H\204F\001\274`G\000\2779\002\000\020\001\264\002H\204F\001\274`G\000\277u\001\000\020\001\264\002H\204F\001\274`G\000\277\321\017\000\020\001\264\002H\204F\001\274`G\000\277\351\005\000\020\001\264\002H\204F\001\274`G\000\277\271\003\000\020\001\264\002H\204F\001\274`G\000\277\343\000\000\020\001\264\002H\204F\001\274`G\000\277\235\002\000\020\001\264\002H\204F\001\274`G\000\277u\005\000\020\000\000\000\000\000\000\000\000\000\000\000\000\000\000\000\000\000\000\000\000\000\000\000"
	.size	CM0_BOOT, 6224

	.section	.rodata..L__unnamed_1,"a",%progbits
.Lsec_end0:
	.section	.rodata..L__unnamed_2,"a",%progbits
.Lsec_end1:
	.section	.rodata._ZN16psoc6_helloworld18aes_using_1d_array4sbox17hed60259f3f51e0c0E,"a",%progbits
.Lsec_end2:
	.section	.rodata._ZN16psoc6_helloworld18aes_using_1d_array4Rcon17hf4ab9f7f6fc00789E,"a",%progbits
.Lsec_end3:
	.section	.cm0boot,"a",%progbits
.Lsec_end4:
	.section	".text._ZN42_$LT$$RF$T$u20$as$u20$core..fmt..Debug$GT$3fmt17h28cc2c45b377c7dbE","ax",%progbits
.Lsec_end5:
	.section	".text._ZN42_$LT$$RF$T$u20$as$u20$core..fmt..Debug$GT$3fmt17h9e48b0bb1f39d125E","ax",%progbits
.Lsec_end6:
	.section	".text._ZN4core3ptr27drop_in_place$LT$$RF$u8$GT$17hb7f49a1b0a1fbfa8E","ax",%progbits
.Lsec_end7:
	.section	.text.unlikely._ZN4core9panicking13assert_failed17h50ed13967c67fe2fE,"ax",%progbits
.Lsec_end8:
	.section	.text.main,"ax",%progbits
.Lsec_end9:
	.section	.text._ZN16psoc6_helloworld18__cortex_m_rt_main17h98f636c1ca0ff03cE,"ax",%progbits
.Lsec_end10:
	.section	".note.GNU-stack","",%progbits
	.eabi_attribute	30, 1